TN:
SF:/data/tzwang/graphics/ReduceGL/Draw04/GlLib/list.cpp
FN:25,_Z14gl_get_contextv
FN:30,_ZL9find_listP9GLContextj
FN:35,_ZL11delete_listP9GLContexti
FN:55,_ZL10alloc_listP9GLContexti
FN:73,_Z11gl_print_opP8_IO_FILEP7GLParam
FN:102,_Z13gl_compile_opP9GLContextP7GLParam
FN:135,_Z9gl_add_opP7GLParam
FN:153,_Z11glopEndListP9GLContextP7GLParam
FN:159,_Z14glopNextBufferP9GLContextP7GLParam
FN:165,_Z12glopCallListP9GLContextP7GLParam
FN:189,glNewList
FN:208,glEndList
FN:223,glIsList
FN:231,glGenLists
FNDA:128,_Z14gl_get_contextv
FNDA:0,_ZL9find_listP9GLContextj
FNDA:0,_ZL11delete_listP9GLContexti
FNDA:0,_ZL10alloc_listP9GLContexti
FNDA:0,_Z11gl_print_opP8_IO_FILEP7GLParam
FNDA:0,_Z13gl_compile_opP9GLContextP7GLParam
FNDA:126,_Z9gl_add_opP7GLParam
FNDA:0,_Z11glopEndListP9GLContextP7GLParam
FNDA:0,_Z14glopNextBufferP9GLContextP7GLParam
FNDA:0,_Z12glopCallListP9GLContextP7GLParam
FNDA:0,glNewList
FNDA:0,glEndList
FNDA:0,glIsList
FNDA:0,glGenLists
FNF:14
FNH:2
DA:25,128
DA:27,128
DA:30,0
DA:32,0
DA:35,0
DA:40,0
DA:41,0
DA:44,0
DA:45,0
DA:46,0
DA:47,0
DA:48,0
DA:51,0
DA:52,0
DA:53,0
DA:55,0
DA:60,0
DA:61,0
DA:63,0
DA:64,0
DA:66,0
DA:68,0
DA:69,0
DA:73,0
DA:78,0
DA:79,0
DA:80,0
DA:81,0
DA:82,0
DA:83,0
DA:84,0
DA:86,0
DA:87,0
DA:89,0
DA:90,0
DA:92,0
DA:94,0
DA:95,0
DA:98,0
DA:99,0
DA:102,0
DA:108,0
DA:109,0
DA:110,0
DA:111,0
DA:114,0
DA:116,0
DA:117,0
DA:119,0
DA:120,0
DA:121,0
DA:123,0
DA:124,0
DA:125,0
DA:128,0
DA:129,0
DA:130,0
DA:132,0
DA:133,0
DA:135,126
DA:137,126
DA:140,126
DA:141,126
DA:142,126
DA:144,126
DA:145,0
DA:147,126
DA:148,0
DA:150,126
DA:153,0
DA:155,0
DA:159,0
DA:161,0
DA:165,0
DA:170,0
DA:171,0
DA:172,0
DA:173,0
DA:175,0
DA:176,0
DA:177,0
DA:178,0
DA:179,0
DA:181,0
DA:182,0
DA:185,0
DA:189,0
DA:192,0
DA:194,0
DA:195,0
DA:197,0
DA:198,0
DA:199,0
DA:201,0
DA:202,0
DA:204,0
DA:205,0
DA:206,0
DA:208,0
DA:210,0
DA:213,0
DA:216,0
DA:217,0
DA:219,0
DA:220,0
DA:221,0
DA:223,0
DA:225,0
DA:227,0
DA:228,0
DA:231,0
DA:233,0
DA:237,0
DA:238,0
DA:239,0
DA:240,0
DA:241,0
DA:242,0
DA:243,0
DA:244,0
DA:245,0
DA:247,0
DA:250,0
DA:253,0
LF:124
LH:10
end_of_record
TN:
SF:/data/tzwang/graphics/ReduceGL/Draw04/GlLib/memory.cpp
FN:8,_Z7gl_freePv
FN:13,_Z9gl_malloci
FN:18,_Z9gl_zalloci
FNDA:0,_Z7gl_freePv
FNDA:6,_Z9gl_malloci
FNDA:7,_Z9gl_zalloci
FNF:3
FNH:2
DA:8,0
DA:10,0
DA:11,0
DA:13,6
DA:15,6
DA:18,7
DA:20,7
LF:7
LH:4
end_of_record
TN:
SF:/data/tzwang/graphics/ReduceGL/Draw04/GlLib/ztriangle.cpp
FN:6,_Z19ZB_fillTriangleFlatP7ZBufferP12ZBufferPointS2_S2_
FN:64,_Z21ZB_fillTriangleSmoothP7ZBufferP12ZBufferPointS2_S2_
FN:174,_Z13ZB_setTextureP7ZBufferPh
FN:179,_Z22ZB_fillTriangleMappingP7ZBufferP12ZBufferPointS2_S2_
FN:236,_Z33ZB_fillTriangleMappingPerspectiveP7ZBufferP12ZBufferPointS2_S2_
FNDA:0,_Z19ZB_fillTriangleFlatP7ZBufferP12ZBufferPointS2_S2_
FNDA:6,_Z21ZB_fillTriangleSmoothP7ZBufferP12ZBufferPointS2_S2_
FNDA:0,_Z13ZB_setTextureP7ZBufferPh
FNDA:0,_Z22ZB_fillTriangleMappingP7ZBufferP12ZBufferPointS2_S2_
FNDA:0,_Z33ZB_fillTriangleMappingPerspectiveP7ZBufferP12ZBufferPointS2_S2_
FNF:5
FNH:1
DA:6,0
DA:64,6
DA:174,0
DA:176,0
DA:177,0
DA:179,0
DA:236,0
LF:7
LH:1
end_of_record
SF:/data/tzwang/graphics/ReduceGL/Draw04/GlLib/ztriangle.h
DA:37,6
DA:38,3
DA:39,3
DA:40,3
DA:42,6
DA:43,3
DA:44,3
DA:45,3
DA:46,3
DA:47,3
DA:48,0
DA:49,0
DA:50,0
DA:55,6
DA:56,6
DA:58,6
DA:59,6
DA:61,6
DA:62,6
DA:63,0
DA:64,6
DA:66,6
DA:67,6
DA:68,6
DA:69,6
DA:72,6
DA:73,6
DA:74,6
DA:75,6
DA:79,6
DA:80,6
DA:81,6
DA:82,6
DA:84,6
DA:85,6
DA:86,6
DA:87,6
DA:89,6
DA:90,6
DA:91,6
DA:92,6
DA:97,0
DA:98,0
DA:99,0
DA:100,0
DA:102,0
DA:103,0
DA:104,0
DA:105,0
DA:111,0
DA:112,0
DA:113,0
DA:114,0
DA:115,0
DA:116,0
DA:117,0
DA:118,0
DA:119,0
DA:121,0
DA:122,0
DA:123,0
DA:124,0
DA:126,0
DA:127,0
DA:128,0
DA:129,0
DA:135,6
DA:136,6
DA:138,0
DA:140,18
DA:141,12
DA:142,6
DA:143,3
DA:144,3
DA:145,3
DA:146,3
DA:147,3
DA:148,3
DA:150,3
DA:151,3
DA:152,3
DA:153,3
DA:154,3
DA:155,3
DA:157,6
DA:160,6
DA:161,3
DA:162,3
DA:163,3
DA:164,3
DA:166,3
DA:167,3
DA:168,3
DA:169,3
DA:171,6
DA:176,12
DA:177,9
DA:178,9
DA:179,9
DA:180,9
DA:182,0
DA:183,9
DA:184,9
DA:185,9
DA:186,9
DA:187,9
DA:190,9
DA:191,9
DA:192,9
DA:195,9
DA:196,9
DA:197,9
DA:199,9
DA:200,9
DA:201,9
DA:203,9
DA:204,9
DA:205,9
DA:208,0
DA:209,0
DA:210,0
DA:212,0
DA:213,0
DA:214,0
DA:217,0
DA:218,0
DA:219,0
DA:221,0
DA:222,0
DA:223,0
DA:229,12
DA:230,9
DA:231,9
DA:232,9
DA:233,9
DA:235,0
DA:236,9
DA:241,4222
DA:242,2105
DA:262,2105
DA:263,2105
DA:265,2105
DA:266,2105
DA:269,2105
DA:270,2105
DA:271,2105
DA:274,0
DA:275,0
DA:281,143237
DA:282,70566
DA:283,70566
DA:284,70566
DA:285,70566
DA:287,70566
DA:289,70566
DA:290,70566
DA:292,8355
DA:293,3125
DA:295,3125
DA:297,3125
DA:298,3125
DA:302,0
DA:306,2105
DA:307,2105
DA:308,462
DA:309,462
DA:311,462
DA:314,462
DA:315,462
DA:316,462
DA:319,0
DA:320,0
DA:323,0
DA:324,0
DA:327,1643
DA:329,1643
DA:332,1643
DA:333,1643
DA:334,1643
DA:337,0
DA:338,0
DA:341,0
DA:342,0
DA:347,2105
DA:350,2105
DA:351,2105
LF:186
LH:131
end_of_record
TN:
SF:/data/tzwang/graphics/ReduceGL/Draw04/GlLib/arrays.cpp
FN:11,_Z16glopArrayElementP9GLContextP7GLParam
FN:55,glArrayElement
FN:65,_Z21glopEnableClientStateP9GLContextP7GLParam
FN:71,glEnableClientState
FN:97,_Z22glopDisableClientStateP9GLContextP7GLParam
FN:103,glDisableClientState
FN:129,_Z17glopVertexPointerP9GLContextP7GLParam
FN:137,glVertexPointer
FN:150,_Z16glopColorPointerP9GLContextP7GLParam
FN:158,glColorPointer
FN:171,_Z17glopNormalPointerP9GLContextP7GLParam
FN:178,glNormalPointer
FN:189,_Z19glopTexCoordPointerP9GLContextP7GLParam
FN:197,glTexCoordPointer
FNDA:0,_Z16glopArrayElementP9GLContextP7GLParam
FNDA:0,glArrayElement
FNDA:0,_Z21glopEnableClientStateP9GLContextP7GLParam
FNDA:0,glEnableClientState
FNDA:0,_Z22glopDisableClientStateP9GLContextP7GLParam
FNDA:0,glDisableClientState
FNDA:0,_Z17glopVertexPointerP9GLContextP7GLParam
FNDA:0,glVertexPointer
FNDA:0,_Z16glopColorPointerP9GLContextP7GLParam
FNDA:0,glColorPointer
FNDA:0,_Z17glopNormalPointerP9GLContextP7GLParam
FNDA:0,glNormalPointer
FNDA:0,_Z19glopTexCoordPointerP9GLContextP7GLParam
FNDA:0,glTexCoordPointer
FNF:14
FNH:0
DA:11,0
DA:14,0
DA:15,0
DA:17,0
DA:19,0
DA:20,0
DA:21,0
DA:22,0
DA:23,0
DA:24,0
DA:25,0
DA:27,0
DA:28,0
DA:29,0
DA:30,0
DA:31,0
DA:32,0
DA:34,0
DA:35,0
DA:36,0
DA:37,0
DA:38,0
DA:39,0
DA:40,0
DA:42,0
DA:44,0
DA:45,0
DA:46,0
DA:47,0
DA:48,0
DA:49,0
DA:50,0
DA:52,0
DA:55,0
DA:58,0
DA:59,0
DA:60,0
DA:61,0
DA:65,0
DA:67,0
DA:68,0
DA:71,0
DA:74,0
DA:76,0
DA:78,0
DA:79,0
DA:81,0
DA:82,0
DA:84,0
DA:85,0
DA:87,0
DA:88,0
DA:90,0
DA:93,0
DA:94,0
DA:97,0
DA:99,0
DA:100,0
DA:103,0
DA:106,0
DA:108,0
DA:110,0
DA:111,0
DA:113,0
DA:114,0
DA:116,0
DA:117,0
DA:119,0
DA:120,0
DA:122,0
DA:125,0
DA:126,0
DA:129,0
DA:131,0
DA:132,0
DA:133,0
DA:134,0
DA:137,0
DA:141,0
DA:142,0
DA:143,0
DA:144,0
DA:145,0
DA:146,0
DA:147,0
DA:150,0
DA:152,0
DA:153,0
DA:154,0
DA:155,0
DA:158,0
DA:162,0
DA:163,0
DA:164,0
DA:165,0
DA:166,0
DA:167,0
DA:168,0
DA:171,0
DA:173,0
DA:174,0
DA:175,0
DA:178,0
DA:182,0
DA:183,0
DA:184,0
DA:185,0
DA:186,0
DA:189,0
DA:191,0
DA:192,0
DA:193,0
DA:194,0
DA:197,0
DA:201,0
DA:202,0
DA:203,0
DA:204,0
DA:205,0
DA:206,0
LF:120
LH:0
end_of_record
TN:
SF:/data/tzwang/graphics/ReduceGL/Draw04/GlLib/api.cpp
FN:5,glVertex4f
FN:18,glVertex2f
FN:23,glVertex3f
FN:28,glVertex3fv
FN:35,glNormal3f
FN:47,glNormal3fv
FN:54,glColor4f
FN:73,glColor4fv
FN:92,glColor3f
FN:97,glColor3fv
FN:105,glTexCoord4f
FN:118,glTexCoord2f
FN:123,glTexCoord2fv
FN:128,glEdgeFlag
FN:140,glShadeModel
FN:152,glCullFace
FN:166,glFrontFace
FN:180,glPolygonMode
FN:199,glEnable
FN:210,glDisable
FN:223,glBegin
FN:233,glEnd
FN:244,glMatrixMode
FN:254,glLoadMatrixf
FN:265,glLoadIdentity
FN:274,glMultMatrixf
FN:285,glPushMatrix
FN:294,glPopMatrix
FN:303,glRotatef
FN:316,glTranslatef
FN:328,glScalef
FN:341,glViewport
FN:354,glFrustum
FN:372,glMaterialfv
FN:390,glMaterialf
FN:404,glColorMaterial
FN:415,glLightfv
FN:430,glLightf
FN:444,glLightModeli
FN:457,glLightModelfv
FN:471,glClear
FN:481,glClearColor
FN:494,glClearDepth
FN:507,glTexImage2D
FN:528,glBindTexture
FN:539,glTexEnvi
FN:555,glTexParameteri
FN:571,glPixelStorei
FN:584,glInitNames
FN:593,glPushName
FN:603,glPopName
FN:612,glLoadName
FN:623,glPolygonOffset
FN:633,glCallList
FN:643,glFlush
FN:648,glHint
FN:661,glDebug
FNDA:36,glVertex4f
FNDA:0,glVertex2f
FNDA:36,glVertex3f
FNDA:0,glVertex3fv
FNDA:36,glNormal3f
FNDA:0,glNormal3fv
FNDA:0,glColor4f
FNDA:0,glColor4fv
FNDA:0,glColor3f
FNDA:0,glColor3fv
FNDA:0,glTexCoord4f
FNDA:0,glTexCoord2f
FNDA:0,glTexCoord2fv
FNDA:0,glEdgeFlag
FNDA:0,glShadeModel
FNDA:0,glCullFace
FNDA:0,glFrontFace
FNDA:0,glPolygonMode
FNDA:8,glEnable
FNDA:0,glDisable
FNDA:1,glBegin
FNDA:1,glEnd
FNDA:7,glMatrixMode
FNDA:0,glLoadMatrixf
FNDA:7,glLoadIdentity
FNDA:2,glMultMatrixf
FNDA:4,glPushMatrix
FNDA:4,glPopMatrix
FNDA:1,glRotatef
FNDA:4,glTranslatef
FNDA:1,glScalef
FNDA:2,glViewport
FNDA:1,glFrustum
FNDA:3,glMaterialfv
FNDA:1,glMaterialf
FNDA:0,glColorMaterial
FNDA:3,glLightfv
FNDA:1,glLightf
FNDA:0,glLightModeli
FNDA:0,glLightModelfv
FNDA:2,glClear
FNDA:1,glClearColor
FNDA:0,glClearDepth
FNDA:0,glTexImage2D
FNDA:0,glBindTexture
FNDA:0,glTexEnvi
FNDA:0,glTexParameteri
FNDA:0,glPixelStorei
FNDA:0,glInitNames
FNDA:0,glPushName
FNDA:0,glPopName
FNDA:0,glLoadName
FNDA:0,glPolygonOffset
FNDA:0,glCallList
FNDA:1,glFlush
FNDA:0,glHint
FNDA:0,glDebug
FNF:57
FNH:23
DA:5,36
DA:9,36
DA:10,36
DA:11,36
DA:12,36
DA:13,36
DA:15,36
DA:16,36
DA:18,0
DA:20,0
DA:21,0
DA:23,36
DA:25,36
DA:26,36
DA:28,0
DA:30,0
DA:31,0
DA:35,36
DA:39,36
DA:40,36
DA:41,36
DA:42,36
DA:44,36
DA:45,36
DA:47,0
DA:49,0
DA:50,0
DA:54,0
DA:58,0
DA:59,0
DA:60,0
DA:61,0
DA:62,0
DA:64,0
DA:65,0
DA:66,0
DA:67,0
DA:68,0
DA:69,0
DA:70,0
DA:71,0
DA:73,0
DA:77,0
DA:78,0
DA:79,0
DA:80,0
DA:81,0
DA:83,0
DA:84,0
DA:85,0
DA:86,0
DA:87,0
DA:88,0
DA:89,0
DA:90,0
DA:92,0
DA:94,0
DA:95,0
DA:97,0
DA:99,0
DA:100,0
DA:105,0
DA:109,0
DA:110,0
DA:111,0
DA:112,0
DA:113,0
DA:115,0
DA:116,0
DA:118,0
DA:120,0
DA:121,0
DA:123,0
DA:125,0
DA:126,0
DA:128,0
DA:132,0
DA:133,0
DA:135,0
DA:136,0
DA:140,0
DA:144,0
DA:146,0
DA:147,0
DA:149,0
DA:150,0
DA:152,0
DA:156,0
DA:158,0
DA:160,0
DA:161,0
DA:163,0
DA:164,0
DA:166,0
DA:170,0
DA:172,0
DA:174,0
DA:175,0
DA:177,0
DA:178,0
DA:180,0
DA:184,0
DA:186,0
DA:187,0
DA:189,0
DA:190,0
DA:191,0
DA:193,0
DA:194,0
DA:199,8
DA:203,8
DA:204,8
DA:205,8
DA:207,8
DA:208,8
DA:210,0
DA:214,0
DA:215,0
DA:216,0
DA:218,0
DA:219,0
DA:223,1
DA:227,1
DA:228,1
DA:230,1
DA:231,1
DA:233,1
DA:237,1
DA:239,1
DA:240,1
DA:244,7
DA:248,7
DA:249,7
DA:251,7
DA:252,7
DA:254,0
DA:259,0
DA:260,0
DA:262,0
DA:263,0
DA:265,7
DA:269,7
DA:271,7
DA:272,7
DA:274,2
DA:279,2
DA:280,2
DA:282,2
DA:283,2
DA:285,4
DA:289,4
DA:291,4
DA:292,4
DA:294,4
DA:298,4
DA:300,4
DA:301,4
DA:303,1
DA:307,1
DA:308,1
DA:309,1
DA:310,1
DA:311,1
DA:313,1
DA:314,1
DA:316,4
DA:320,4
DA:321,4
DA:322,4
DA:323,4
DA:325,4
DA:326,4
DA:328,1
DA:332,1
DA:333,1
DA:334,1
DA:335,1
DA:337,1
DA:338,1
DA:341,2
DA:345,2
DA:346,2
DA:347,2
DA:348,2
DA:349,2
DA:351,2
DA:352,2
DA:354,1
DA:359,1
DA:360,1
DA:361,1
DA:362,1
DA:363,1
DA:364,1
DA:365,1
DA:367,1
DA:368,1
DA:372,3
DA:377,3
DA:379,3
DA:380,3
DA:381,3
DA:382,3
DA:383,3
DA:384,3
DA:385,3
DA:387,3
DA:388,3
DA:390,1
DA:395,1
DA:396,1
DA:397,1
DA:398,1
DA:399,1
DA:401,1
DA:402,1
DA:404,0
DA:408,0
DA:409,0
DA:410,0
DA:412,0
DA:413,0
DA:415,3
DA:420,3
DA:421,3
DA:422,3
DA:424,3
DA:426,3
DA:427,3
DA:430,1
DA:435,1
DA:436,1
DA:437,1
DA:438,1
DA:439,1
DA:441,1
DA:442,1
DA:444,0
DA:449,0
DA:450,0
DA:451,0
DA:452,0
DA:454,0
DA:455,0
DA:457,0
DA:462,0
DA:463,0
DA:464,0
DA:466,0
DA:467,0
DA:471,2
DA:475,2
DA:476,2
DA:478,2
DA:479,2
DA:481,1
DA:485,1
DA:486,1
DA:487,1
DA:488,1
DA:489,1
DA:491,1
DA:492,1
DA:494,0
DA:498,0
DA:499,0
DA:501,0
DA:502,0
DA:507,0
DA:513,0
DA:514,0
DA:515,0
DA:516,0
DA:517,0
DA:518,0
DA:519,0
DA:520,0
DA:521,0
DA:522,0
DA:524,0
DA:525,0
DA:528,0
DA:532,0
DA:533,0
DA:534,0
DA:536,0
DA:537,0
DA:539,0
DA:543,0
DA:544,0
DA:545,0
DA:546,0
DA:547,0
DA:548,0
DA:549,0
DA:550,0
DA:552,0
DA:553,0
DA:555,0
DA:559,0
DA:560,0
DA:561,0
DA:562,0
DA:563,0
DA:564,0
DA:565,0
DA:566,0
DA:568,0
DA:569,0
DA:571,0
DA:575,0
DA:576,0
DA:577,0
DA:579,0
DA:580,0
DA:584,0
DA:588,0
DA:590,0
DA:591,0
DA:593,0
DA:597,0
DA:598,0
DA:600,0
DA:601,0
DA:603,0
DA:607,0
DA:609,0
DA:610,0
DA:612,0
DA:616,0
DA:617,0
DA:619,0
DA:620,0
DA:623,0
DA:626,0
DA:627,0
DA:628,0
DA:629,0
DA:633,0
DA:637,0
DA:638,0
DA:640,0
DA:641,0
DA:643,1
DA:646,1
DA:648,0
DA:652,0
DA:653,0
DA:654,0
DA:656,0
DA:657,0
DA:661,0
DA:663,0
DA:664,0
DA:665,0
LF:355
LH:144
end_of_record
TN:
SF:/data/tzwang/graphics/ReduceGL/Draw04/GlLib/image_util.cpp
FN:7,_Z23gl_convertRGB_to_5R6G5BPtPhii
FN:21,_Z25gl_convertRGB_to_8A8R8G8BPjPhii
FN:44,_ZL11interpolateiiiii
FN:54,_Z14gl_resizeImagePhiiS_ii
FN:105,_Z27gl_resizeImageNoInterpolatePhiiS_ii
FNDA:0,_Z23gl_convertRGB_to_5R6G5BPtPhii
FNDA:0,_Z25gl_convertRGB_to_8A8R8G8BPjPhii
FNDA:0,_ZL11interpolateiiiii
FNDA:0,_Z14gl_resizeImagePhiiS_ii
FNDA:0,_Z27gl_resizeImageNoInterpolatePhiiS_ii
FNF:5
FNH:0
DA:7,0
DA:13,0
DA:14,0
DA:15,0
DA:16,0
DA:17,0
DA:19,0
DA:21,0
DA:27,0
DA:28,0
DA:29,0
DA:30,0
DA:31,0
DA:32,0
DA:33,0
DA:35,0
DA:44,0
DA:46,0
DA:54,0
DA:61,0
DA:62,0
DA:64,0
DA:65,0
DA:67,0
DA:68,0
DA:69,0
DA:70,0
DA:71,0
DA:72,0
DA:73,0
DA:74,0
DA:76,0
DA:77,0
DA:78,0
DA:79,0
DA:80,0
DA:81,0
DA:84,0
DA:85,0
DA:86,0
DA:87,0
DA:88,0
DA:89,0
DA:90,0
DA:94,0
DA:95,0
DA:97,0
DA:99,0
DA:105,0
DA:112,0
DA:113,0
DA:115,0
DA:116,0
DA:118,0
DA:119,0
DA:120,0
DA:121,0
DA:122,0
DA:123,0
DA:124,0
DA:126,0
DA:127,0
DA:128,0
DA:130,0
DA:131,0
DA:133,0
DA:135,0
LF:67
LH:0
end_of_record
TN:
SF:/data/tzwang/graphics/ReduceGL/Draw04/GlLib/clip.cpp
FN:13,_Z24gl_transform_to_viewportP9GLContextP8GLVertex
FN:51,_ZL14gl_add_select1P9GLContextiii
FN:65,_Z13gl_draw_pointP9GLContextP8GLVertex
FN:78,_ZL11interpolateP8GLVertexS0_S0_f
FN:96,_ZL9ClipLine1ffPfS_
FN:112,_Z12gl_draw_lineP9GLContextP8GLVertexS2_
FN:196,_ZL9clip_xminP2V4S0_S0_
FN:198,_ZL9clip_xmaxP2V4S0_S0_
FN:200,_ZL9clip_yminP2V4S0_S0_
FN:202,_ZL9clip_ymaxP2V4S0_S0_
FN:204,_ZL9clip_zminP2V4S0_S0_
FN:206,_ZL9clip_zmaxP2V4S0_S0_
FN:215,_ZL9updateTmpP9GLContextP8GLVertexS2_S2_f
FN:241,_Z16gl_draw_triangleP9GLContextP8GLVertexS2_S2_
FN:292,_ZL21gl_draw_triangle_clipP9GLContextP8GLVertexS2_S2_i
FN:373,_Z23gl_draw_triangle_selectP9GLContextP8GLVertexS2_S2_
FN:383,_Z21gl_draw_triangle_fillP9GLContextP8GLVertexS2_S2_
FN:418,_Z21gl_draw_triangle_lineP9GLContextP8GLVertexS2_S2_
FN:435,_Z22gl_draw_triangle_pointP9GLContextP8GLVertexS2_S2_
FNDA:36,_Z24gl_transform_to_viewportP9GLContextP8GLVertex
FNDA:0,_ZL14gl_add_select1P9GLContextiii
FNDA:0,_Z13gl_draw_pointP9GLContextP8GLVertex
FNDA:0,_ZL11interpolateP8GLVertexS0_S0_f
FNDA:0,_ZL9ClipLine1ffPfS_
FNDA:0,_Z12gl_draw_lineP9GLContextP8GLVertexS2_
FNDA:0,_ZL9clip_xminP2V4S0_S0_
FNDA:0,_ZL9clip_xmaxP2V4S0_S0_
FNDA:0,_ZL9clip_yminP2V4S0_S0_
FNDA:0,_ZL9clip_ymaxP2V4S0_S0_
FNDA:0,_ZL9clip_zminP2V4S0_S0_
FNDA:0,_ZL9clip_zmaxP2V4S0_S0_
FNDA:0,_ZL9updateTmpP9GLContextP8GLVertexS2_S2_f
FNDA:12,_Z16gl_draw_triangleP9GLContextP8GLVertexS2_S2_
FNDA:0,_ZL21gl_draw_triangle_clipP9GLContextP8GLVertexS2_S2_i
FNDA:0,_Z23gl_draw_triangle_selectP9GLContextP8GLVertexS2_S2_
FNDA:6,_Z21gl_draw_triangle_fillP9GLContextP8GLVertexS2_S2_
FNDA:0,_Z21gl_draw_triangle_lineP9GLContextP8GLVertexS2_S2_
FNDA:0,_Z22gl_draw_triangle_pointP9GLContextP8GLVertexS2_S2_
FNF:19
FNH:3
DA:13,36
DA:18,36
DA:19,36
DA:20,36
DA:21,36
DA:22,36
DA:23,36
DA:24,36
DA:26,36
DA:27,36
DA:28,36
DA:29,36
DA:30,36
DA:31,36
DA:32,36
DA:35,0
DA:36,0
DA:37,0
DA:42,36
DA:43,0
DA:44,0
DA:45,0
DA:46,0
DA:48,36
DA:51,0
DA:54,0
DA:55,0
DA:56,0
DA:57,0
DA:58,0
DA:60,0
DA:61,0
DA:65,0
DA:67,0
DA:68,0
DA:69,0
DA:71,0
DA:74,0
DA:78,0
DA:80,0
DA:81,0
DA:82,0
DA:83,0
DA:85,0
DA:86,0
DA:87,0
DA:88,0
DA:96,0
DA:100,0
DA:101,0
DA:102,0
DA:103,0
DA:104,0
DA:105,0
DA:106,0
DA:107,0
DA:108,0
DA:109,0
DA:112,0
DA:119,0
DA:120,0
DA:122,0
DA:123,0
DA:124,0
DA:126,0
DA:127,0
DA:129,0
DA:131,0
DA:132,0
DA:134,0
DA:135,0
DA:136,0
DA:137,0
DA:138,0
DA:139,0
DA:140,0
DA:141,0
DA:143,0
DA:144,0
DA:145,0
DA:146,0
DA:147,0
DA:148,0
DA:149,0
DA:150,0
DA:152,0
DA:153,0
DA:154,0
DA:155,0
DA:157,0
DA:158,0
DA:160,0
DA:196,0
DA:198,0
DA:200,0
DA:202,0
DA:204,0
DA:206,0
DA:215,0
DA:218,0
DA:219,0
DA:220,0
DA:221,0
DA:223,0
DA:224,0
DA:225,0
DA:228,0
DA:229,0
DA:230,0
DA:233,0
DA:234,0
DA:235,0
DA:236,0
DA:241,12
DA:247,12
DA:248,12
DA:249,12
DA:251,12
DA:254,12
DA:256,12
DA:257,12
DA:259,18
DA:261,12
DA:262,12
DA:265,12
DA:267,12
DA:268,12
DA:269,6
DA:270,0
DA:271,0
DA:272,0
DA:274,0
DA:278,0
DA:279,0
DA:281,0
DA:285,0
DA:286,0
DA:287,0
DA:292,0
DA:299,0
DA:300,0
DA:301,0
DA:303,0
DA:304,0
DA:305,0
DA:307,0
DA:309,0
DA:312,0
DA:313,0
DA:317,0
DA:324,0
DA:327,0
DA:328,0
DA:330,0
DA:333,0
DA:334,0
DA:335,0
DA:337,0
DA:338,0
DA:340,0
DA:341,0
DA:343,0
DA:344,0
DA:345,0
DA:346,0
DA:348,0
DA:349,0
DA:350,0
DA:351,0
DA:355,0
DA:356,0
DA:357,0
DA:359,0
DA:360,0
DA:362,0
DA:363,0
DA:365,0
DA:366,0
DA:367,0
DA:373,0
DA:376,0
DA:377,0
DA:383,6
DA:403,6
DA:407,0
DA:408,0
DA:409,6
DA:410,6
DA:412,0
DA:414,6
DA:418,0
DA:421,0
DA:422,0
DA:423,0
DA:424,0
DA:426,0
DA:427,0
DA:428,0
DA:430,0
DA:435,0
DA:438,0
DA:439,0
DA:440,0
DA:441,0
LF:204
LH:37
end_of_record
SF:/data/tzwang/graphics/ReduceGL/Draw04/GlLib/zgl.h
FN:361,_ZL11gl_clipcodeffff
FNDA:0,_ZL11gl_clipcodeffff
FNF:1
FNH:0
DA:361,0
DA:365,0
DA:366,0
DA:367,0
DA:368,0
DA:369,0
DA:370,0
DA:371,0
LF:8
LH:0
end_of_record
TN:
SF:/data/tzwang/graphics/ReduceGL/Draw04/GlLib/zbuffer.cpp
FN:12,_Z7ZB_openiiiiPhPiPv
FN:75,_Z8ZB_closeP7ZBuffer
FN:89,_Z9ZB_resizeP7ZBufferPvii
FN:117,_ZL13ZB_copyBufferP7ZBufferPvi
FN:311,_ZL24ZB_copyFrameBuffer5R6G5BP7ZBufferPvi
FN:336,_Z18ZB_copyFrameBufferP7ZBufferPvi
FN:413,_Z8memset_sPvii
FN:437,_Z8memset_lPvii
FN:459,_Z12memset_RGB24Pviiil
FN:500,_Z8ZB_clearP7ZBufferiiiiii
FNDA:1,_Z7ZB_openiiiiPhPiPv
FNDA:0,_Z8ZB_closeP7ZBuffer
FNDA:0,_Z9ZB_resizeP7ZBufferPvii
FNDA:0,_ZL13ZB_copyBufferP7ZBufferPvi
FNDA:0,_ZL24ZB_copyFrameBuffer5R6G5BP7ZBufferPvi
FNDA:0,_Z18ZB_copyFrameBufferP7ZBufferPvi
FNDA:2,_Z8memset_sPvii
FNDA:0,_Z8memset_lPvii
FNDA:3200,_Z12memset_RGB24Pviiil
FNDA:2,_Z8ZB_clearP7ZBufferiiiiii
FNF:10
FNH:4
DA:12,1
DA:21,1
DA:22,1
DA:23,0
DA:25,1
DA:26,1
DA:27,1
DA:28,1
DA:30,1
DA:33,0
DA:34,0
DA:43,1
DA:44,1
DA:46,0
DA:49,1
DA:51,1
DA:52,1
DA:53,0
DA:55,1
DA:56,1
DA:57,1
DA:58,0
DA:59,0
DA:61,1
DA:63,0
DA:64,0
DA:67,1
DA:69,1
DA:71,0
DA:72,0
DA:75,0
DA:78,0
DA:79,0
DA:82,0
DA:83,0
DA:85,0
DA:86,0
DA:87,0
DA:89,0
DA:94,0
DA:96,0
DA:97,0
DA:98,0
DA:100,0
DA:102,0
DA:103,0
DA:105,0
DA:106,0
DA:108,0
DA:109,0
DA:110,0
DA:112,0
DA:113,0
DA:115,0
DA:117,0
DA:125,0
DA:126,0
DA:127,0
DA:128,0
DA:129,0
DA:130,0
DA:131,0
DA:133,0
DA:311,0
DA:318,0
DA:319,0
DA:321,0
DA:322,0
DA:323,0
DA:324,0
DA:325,0
DA:326,0
DA:327,0
DA:328,0
DA:329,0
DA:330,0
DA:332,0
DA:334,0
DA:336,0
DA:339,0
DA:342,0
DA:343,0
DA:347,0
DA:348,0
DA:351,0
DA:353,0
DA:413,2
DA:419,2
DA:420,2
DA:422,2
DA:423,640002
DA:424,640000
DA:425,640000
DA:426,640000
DA:427,640000
DA:428,640000
DA:431,2
DA:432,2
DA:433,2
DA:434,0
DA:435,2
DA:437,0
DA:442,0
DA:443,0
DA:444,0
DA:445,0
DA:446,0
DA:447,0
DA:448,0
DA:449,0
DA:450,0
DA:453,0
DA:454,0
DA:455,0
DA:456,0
DA:459,3200
DA:462,3200
DA:463,3200
DA:465,3200
DA:468,3200
DA:469,3200
DA:470,3200
DA:471,5120000
DA:473,5116800
DA:474,5116800
DA:475,5116800
DA:498,3200
DA:500,2
DA:509,2
DA:510,2
DA:512,2
DA:513,2
DA:514,3202
DA:522,3200
DA:526,3200
DA:529,2
LF:136
LH:54
end_of_record
TN:
SF:/data/tzwang/graphics/ReduceGL/Draw04/GlLib/zmath.cpp
FN:12,_Z8gl_M4_IdP2M4
FN:20,_Z10gl_M4_IsIdP2M4
FN:32,_Z9gl_M4_MulP2M4S0_S0_
FN:45,_Z13gl_M4_MulLeftP2M4S0_
FN:63,_Z10gl_M4_MoveP2M4S0_
FN:68,_Z9gl_MoveV3P2V3S0_
FN:74,_Z10gl_MulM4V3P2V3P2M4S0_
FN:81,_Z10gl_MulM3V3P2V3P2M4S0_
FN:88,_Z11gl_M4_MulV4P2V4P2M4S0_
FN:97,_Z15gl_M4_TransposeP2M4S0_
FN:121,_Z14gl_M4_InvOrthoP2M4S_
FN:138,_Z10Matrix_InvPfS_i
FN:198,_Z9gl_M4_InvP2M4S0_
FN:206,_Z12gl_M4_RotateP2M4fi
FN:221,_Z9gl_M3_InvP2M3S0_
FN:245,_Z10gl_V3_NormP2V3
FN:256,_Z9gl_V3_Newfff
FN:265,_Z9gl_V4_Newffff
FNDA:8,_Z8gl_M4_IdP2M4
FNDA:1,_Z10gl_M4_IsIdP2M4
FNDA:0,_Z9gl_M4_MulP2M4S0_S0_
FNDA:4,_Z13gl_M4_MulLeftP2M4S0_
FNDA:4,_Z10gl_M4_MoveP2M4S0_
FNDA:0,_Z9gl_MoveV3P2V3S0_
FNDA:0,_Z10gl_MulM4V3P2V3P2M4S0_
FNDA:0,_Z10gl_MulM3V3P2V3P2M4S0_
FNDA:2,_Z11gl_M4_MulV4P2V4P2M4S0_
FNDA:1,_Z15gl_M4_TransposeP2M4S0_
FNDA:0,_Z14gl_M4_InvOrthoP2M4S_
FNDA:1,_Z10Matrix_InvPfS_i
FNDA:1,_Z9gl_M4_InvP2M4S0_
FNDA:0,_Z12gl_M4_RotateP2M4fi
FNDA:0,_Z9gl_M3_InvP2M3S0_
FNDA:38,_Z10gl_V3_NormP2V3
FNDA:48,_Z9gl_V3_Newfff
FNDA:73,_Z9gl_V4_Newffff
FNF:18
FNH:11
DA:12,8
DA:15,40
DA:16,160
DA:17,128
DA:18,8
DA:20,1
DA:23,5
DA:24,20
DA:25,16
DA:26,4
DA:27,12
DA:29,1
DA:32,0
DA:36,0
DA:37,0
DA:38,0
DA:39,0
DA:40,0
DA:42,0
DA:45,4
DA:53,4
DA:55,20
DA:56,80
DA:57,64
DA:58,64
DA:59,64
DA:61,4
DA:63,4
DA:65,4
DA:66,4
DA:68,0
DA:70,0
DA:71,0
DA:74,0
DA:76,0
DA:77,0
DA:78,0
DA:79,0
DA:81,0
DA:83,0
DA:84,0
DA:85,0
DA:86,0
DA:88,2
DA:90,2
DA:91,2
DA:92,2
DA:93,2
DA:94,2
DA:97,1
DA:99,1
DA:100,1
DA:101,1
DA:102,1
DA:104,1
DA:105,1
DA:106,1
DA:107,1
DA:109,1
DA:110,1
DA:111,1
DA:112,1
DA:114,1
DA:115,1
DA:116,1
DA:117,1
DA:118,1
DA:121,0
DA:125,0
DA:126,0
DA:127,0
DA:128,0
DA:129,0
DA:130,0
DA:131,0
DA:133,0
DA:138,1
DA:144,1
DA:145,1
DA:147,5
DA:150,4
DA:151,4
DA:152,10
DA:153,6
DA:154,0
DA:155,0
DA:159,4
DA:163,4
DA:164,0
DA:165,0
DA:166,0
DA:167,0
DA:169,0
DA:170,0
DA:171,0
DA:176,4
DA:177,20
DA:178,16
DA:179,16
DA:183,20
DA:184,12
DA:185,60
DA:186,48
DA:187,48
DA:192,1
DA:198,1
DA:201,1
DA:203,1
DA:204,1
DA:206,0
DA:210,0
DA:211,0
DA:212,0
DA:213,0
DA:214,0
DA:215,0
DA:216,0
DA:217,0
DA:221,0
DA:225,0
DA:226,0
DA:227,0
DA:229,0
DA:230,0
DA:231,0
DA:233,0
DA:234,0
DA:235,0
DA:237,0
DA:238,0
DA:239,0
DA:240,0
DA:245,38
DA:248,38
DA:249,38
DA:250,38
DA:251,38
DA:252,38
DA:253,38
DA:256,48
DA:259,48
DA:260,48
DA:261,48
DA:262,48
DA:265,73
DA:268,73
DA:269,73
DA:270,73
DA:271,73
DA:272,73
LF:150
LH:89
end_of_record
TN:
SF:/data/tzwang/graphics/ReduceGL/Draw04/GlLib/c24bitmap.h
FN:156,_ZN9C24BitMap11GetPenColorEii
FN:166,_ZN9C24BitMap8ClearPicEi
FN:173,_Z9TransAxisRdS_S_S_
FN:476,_ZN9C24BitMapC2Ev
FN:486,_ZN9C24BitMapD2Ev
FN:491,_ZN9C24BitMap7FormatFEii
FN:508,_ZN9C24BitMap4SaveEPc
FN:544,_Z13get_pix_colorR9C24BitMapii
FNDA:0,_ZN9C24BitMap11GetPenColorEii
FNDA:0,_ZN9C24BitMap8ClearPicEi
FNDA:0,_Z9TransAxisRdS_S_S_
FNDA:0,_ZN9C24BitMapC2Ev
FNDA:0,_ZN9C24BitMapD2Ev
FNDA:1,_ZN9C24BitMap7FormatFEii
FNDA:1,_ZN9C24BitMap4SaveEPc
FNDA:2560000,_Z13get_pix_colorR9C24BitMapii
FNF:8
FNH:3
DA:156,0
DA:159,0
DA:160,0
DA:161,0
DA:162,0
DA:163,0
DA:166,0
DA:169,0
DA:170,0
DA:173,0
DA:176,0
DA:177,0
DA:178,0
DA:179,0
DA:180,0
DA:476,0
DA:478,0
DA:479,0
DA:480,0
DA:481,0
DA:482,0
DA:483,0
DA:484,0
DA:486,0
DA:488,0
DA:489,0
DA:491,1
DA:497,1
DA:499,1
DA:500,1
DA:501,1
DA:502,1
DA:503,1
DA:504,1
DA:505,1
DA:506,1
DA:508,1
DA:510,1
DA:511,1
DA:512,1
DA:513,1
DA:514,1
DA:515,1
DA:544,2560000
DA:545,2560000
DA:547,2560000
DA:548,2560000
DA:555,2560000
LF:48
LH:22
end_of_record
SF:/data/tzwang/graphics/ReduceGL/Draw04/GlLib/c256bitmap.h
FN:50,_ZN10C256BitMapD2Ev
FN:60,_ZN10C256BitMapaSERKS_
FN:67,_ZN10C256BitMapC2Ev
FN:71,_ZN10C256BitMap7FormatFEii
FNDA:0,_ZN10C256BitMapD2Ev
FNDA:0,_ZN10C256BitMapaSERKS_
FNDA:0,_ZN10C256BitMapC2Ev
FNDA:0,_ZN10C256BitMap7FormatFEii
FNF:4
FNH:0
DA:50,0
DA:51,0
DA:52,0
DA:53,0
DA:60,0
DA:62,0
DA:63,0
DA:64,0
DA:65,0
DA:67,0
DA:68,0
DA:69,0
DA:71,0
DA:73,0
DA:74,0
DA:75,0
DA:76,0
DA:77,0
DA:78,0
DA:79,0
DA:81,0
DA:82,0
DA:83,0
DA:84,0
DA:85,0
LF:25
LH:0
end_of_record
SF:/data/tzwang/graphics/ReduceGL/Draw04/GlLib/glx.cpp
FN:14,glXQueryExtension
FN:23,glXCreateContext
FN:38,glXDestroyContext
FN:50,_ZL15glxHandleXErrorP9_XDisplayP11XErrorEvent
FN:56,_ZL14bits_per_pixelP9_XDisplayP11XVisualInfo
FN:79,_Z19glX_resize_viewportP9GLContextPiS1_
FN:117,_ZL20WaitForShmCompletionP9_XDisplayP7_XEventPc
FN:125,glXSwapBuffers
FN:178,glXWaitGL
FN:182,glXWaitX
FNDA:0,glXQueryExtension
FNDA:1,glXCreateContext
FNDA:0,glXDestroyContext
FNDA:0,_ZL15glxHandleXErrorP9_XDisplayP11XErrorEvent
FNDA:0,_ZL14bits_per_pixelP9_XDisplayP11XVisualInfo
FNDA:0,_Z19glX_resize_viewportP9GLContextPiS1_
FNDA:0,_ZL20WaitForShmCompletionP9_XDisplayP7_XEventPc
FNDA:1,glXSwapBuffers
FNDA:0,glXWaitGL
FNDA:0,glXWaitX
FNF:10
FNH:2
DA:14,0
DA:16,0
DA:23,1
DA:28,1
DA:29,0
DA:31,1
DA:32,1
DA:34,1
DA:38,0
DA:40,0
DA:41,0
DA:42,0
DA:44,0
DA:45,0
DA:50,0
DA:52,0
DA:53,0
DA:56,0
DA:62,0
DA:63,0
DA:64,0
DA:66,0
DA:79,0
DA:84,0
DA:86,0
DA:87,0
DA:91,0
DA:92,0
DA:94,0
DA:96,0
DA:97,0
DA:101,0
DA:102,0
DA:108,0
DA:109,0
DA:111,0
DA:113,0
DA:117,0
DA:119,0
DA:121,0
DA:122,0
DA:125,1
DA:131,1
DA:132,1
DA:134,1
DA:135,1
DA:136,1
DA:137,1601
DA:139,1600
DA:140,1600
DA:141,2561600
DA:143,2560000
DA:145,2560000
DA:146,2560000
DA:147,2560000
DA:150,1
DA:151,1
DA:178,0
DA:180,0
DA:182,0
DA:184,0
LF:61
LH:21
end_of_record
TN:
SF:/data/tzwang/graphics/ReduceGL/Draw04/GlLib/vertex.cpp
FN:4,_Z10glopNormalP9GLContextP7GLParam
FN:18,_Z12glopTexCoordP9GLContextP7GLParam
FN:26,_Z12glopEdgeFlagP9GLContextP7GLParam
FN:31,_Z9glopColorP9GLContextP7GLParam
FN:56,_Z16gl_eval_viewportP9GLContext
FN:72,_Z9glopBeginP9GLContextP7GLParam
FN:146,_ZL19gl_vertex_transformP9GLContextP8GLVertex
FN:207,_Z10glopVertexP9GLContextP7GLParam
FN:349,_Z7glopEndP9GLContextP7GLParam
FNDA:36,_Z10glopNormalP9GLContextP7GLParam
FNDA:0,_Z12glopTexCoordP9GLContextP7GLParam
FNDA:0,_Z12glopEdgeFlagP9GLContextP7GLParam
FNDA:0,_Z9glopColorP9GLContextP7GLParam
FNDA:1,_Z16gl_eval_viewportP9GLContext
FNDA:1,_Z9glopBeginP9GLContextP7GLParam
FNDA:36,_ZL19gl_vertex_transformP9GLContextP8GLVertex
FNDA:36,_Z10glopVertexP9GLContextP7GLParam
FNDA:1,_Z7glopEndP9GLContextP7GLParam
FNF:9
FNH:6
DA:4,36
DA:8,36
DA:9,36
DA:10,36
DA:12,36
DA:13,36
DA:14,36
DA:15,36
DA:16,36
DA:18,0
DA:20,0
DA:21,0
DA:22,0
DA:23,0
DA:24,0
DA:26,0
DA:28,0
DA:29,0
DA:31,0
DA:34,0
DA:35,0
DA:36,0
DA:37,0
DA:38,0
DA:39,0
DA:40,0
DA:42,0
DA:44,0
DA:45,0
DA:46,0
DA:47,0
DA:48,0
DA:49,0
DA:50,0
DA:51,0
DA:53,0
DA:56,1
DA:59,1
DA:61,1
DA:63,1
DA:64,1
DA:65,1
DA:67,1
DA:68,1
DA:69,1
DA:70,1
DA:72,1
DA:77,1
DA:79,1
DA:80,1
DA:81,1
DA:82,1
DA:83,1
DA:85,1
DA:87,1
DA:89,1
DA:90,1
DA:92,0
DA:94,0
DA:96,0
DA:98,0
DA:99,0
DA:100,0
DA:104,1
DA:106,1
DA:109,1
DA:110,1
DA:111,1
DA:114,1
DA:115,0
DA:116,0
DA:118,1
DA:120,0
DA:121,0
DA:123,0
DA:124,0
DA:126,1
DA:127,1
DA:130,1
DA:132,0
DA:133,0
DA:135,0
DA:136,0
DA:138,1
DA:139,1
DA:142,1
DA:146,36
DA:151,36
DA:154,36
DA:155,72
DA:156,72
DA:157,72
DA:158,72
DA:159,72
DA:160,72
DA:161,72
DA:162,72
DA:165,36
DA:166,72
DA:167,72
DA:168,72
DA:169,72
DA:170,72
DA:171,72
DA:172,72
DA:173,72
DA:175,36
DA:176,36
DA:178,36
DA:179,36
DA:180,36
DA:182,36
DA:183,36
DA:188,0
DA:190,0
DA:191,0
DA:192,0
DA:193,0
DA:194,0
DA:195,0
DA:196,0
DA:197,0
DA:199,0
DA:200,0
DA:204,36
DA:205,36
DA:207,36
DA:212,36
DA:214,36
DA:215,36
DA:216,36
DA:217,36
DA:220,36
DA:222,0
DA:223,0
DA:224,0
DA:225,0
DA:227,0
DA:228,0
DA:229,0
DA:232,36
DA:233,36
DA:235,36
DA:236,36
DA:237,36
DA:238,36
DA:240,36
DA:244,36
DA:245,36
DA:247,0
DA:252,36
DA:253,0
DA:254,0
DA:256,0
DA:260,36
DA:261,36
DA:265,36
DA:267,36
DA:269,0
DA:270,0
DA:271,0
DA:274,0
DA:275,0
DA:276,0
DA:278,0
DA:281,0
DA:282,0
DA:283,0
DA:284,0
DA:285,0
DA:286,0
DA:288,0
DA:291,36
DA:292,12
DA:293,12
DA:295,36
DA:297,0
DA:298,0
DA:299,0
DA:301,0
DA:303,0
DA:304,0
DA:307,0
DA:308,0
DA:311,0
DA:313,0
DA:314,0
DA:315,0
DA:316,0
DA:318,0
DA:321,0
DA:322,0
DA:323,0
DA:324,0
DA:325,0
DA:326,0
DA:327,0
DA:329,0
DA:332,0
DA:333,0
DA:334,0
DA:335,0
DA:336,0
DA:337,0
DA:339,0
DA:341,0
DA:343,0
DA:346,36
DA:347,36
DA:349,1
DA:351,1
DA:353,1
DA:354,0
DA:355,0
DA:357,1
DA:358,0
DA:359,0
DA:360,0
DA:361,0
DA:364,1
DA:365,1
LF:221
LH:105
end_of_record
SF:/data/tzwang/graphics/ReduceGL/Draw04/GlLib/zgl.h
FN:361,_ZL11gl_clipcodeffff
FNDA:36,_ZL11gl_clipcodeffff
FNF:1
FNH:1
DA:361,36
DA:365,36
DA:366,72
DA:367,72
DA:368,72
DA:369,72
DA:370,36
DA:371,36
LF:8
LH:8
end_of_record
TN:
SF:/data/tzwang/graphics/ReduceGL/Draw04/GlLib/init.cpp
FN:6,_Z15initSharedStateP9GLContext
FN:16,_Z14endSharedStateP9GLContext
FN:30,glInit
FN:184,glClose
FNDA:1,_Z15initSharedStateP9GLContext
FNDA:0,_Z14endSharedStateP9GLContext
FNDA:1,glInit
FNDA:0,glClose
FNF:4
FNH:2
DA:6,1
DA:8,1
DA:9,1
DA:11,1
DA:13,1
DA:14,1
DA:16,0
DA:18,0
DA:21,0
DA:24,0
DA:26,0
DA:27,0
DA:30,1
DA:32,1
DA:37,1
DA:38,1
DA:40,1
DA:43,1
DA:44,1
DA:47,1
DA:48,1
DA:49,1
DA:50,1
DA:51,1
DA:52,1
DA:55,1
DA:59,1
DA:60,1
DA:61,1
DA:63,1
DA:66,17
DA:67,16
DA:68,16
DA:69,16
DA:70,16
DA:71,16
DA:72,16
DA:73,16
DA:74,16
DA:75,16
DA:76,16
DA:77,16
DA:78,16
DA:79,16
DA:80,16
DA:82,1
DA:83,1
DA:84,1
DA:85,1
DA:86,1
DA:89,3
DA:90,2
DA:91,2
DA:92,2
DA:93,2
DA:94,2
DA:95,2
DA:97,1
DA:98,1
DA:99,1
DA:102,1
DA:105,1
DA:106,1
DA:107,1
DA:108,1
DA:109,1
DA:110,1
DA:111,1
DA:113,1
DA:114,1
DA:115,1
DA:116,1
DA:118,1
DA:120,1
DA:121,1
DA:122,1
DA:123,1
DA:125,1
DA:126,1
DA:128,1
DA:129,1
DA:130,1
DA:131,1
DA:134,1
DA:135,1
DA:136,1
DA:137,1
DA:138,1
DA:141,1
DA:142,1
DA:143,1
DA:146,1
DA:148,1
DA:149,1
DA:150,1
DA:152,4
DA:153,3
DA:154,3
DA:157,1
DA:158,1
DA:159,1
DA:160,1
DA:161,1
DA:162,1
DA:164,1
DA:167,1
DA:170,1
DA:173,1
DA:176,1
DA:177,1
DA:178,1
DA:181,1
DA:182,1
DA:184,0
DA:186,0
DA:187,0
DA:188,0
DA:189,0
LF:118
LH:107
end_of_record
TN:
SF:/data/tzwang/graphics/ReduceGL/Draw04/GlLib/kh_project.cpp
FN:12,_ZL18__gluMakeIdentitydPd
FN:20,_ZL18__gluMakeIdentityfPf
FN:29,gluOrtho2D
FN:37,_Z13glMultMatrixdPKd
FN:49,gluPerspective
FN:74,_ZL9normalizePf
FN:86,_ZL5crossPfS_S_
FN:106,_Z12glTranslatedddd
FN:113,gluLookAt
FN:154,_ZL19__gluMultMatrixVecdPKdS0_Pd
FN:172,_ZL18__gluInvertMatrixdPKdPd
FN:222,_ZL18__gluMultMatricesdPKdS0_Pd
FN:239,gluProject
FN:274,gluUnProject
FN:315,gluUnProject4
FN:355,gluPickMatrix
FNDA:1,_ZL18__gluMakeIdentitydPd
FNDA:1,_ZL18__gluMakeIdentityfPf
FNDA:0,gluOrtho2D
FNDA:1,_Z13glMultMatrixdPKd
FNDA:1,gluPerspective
FNDA:2,_ZL9normalizePf
FNDA:2,_ZL5crossPfS_S_
FNDA:1,_Z12glTranslatedddd
FNDA:1,gluLookAt
FNDA:0,_ZL19__gluMultMatrixVecdPKdS0_Pd
FNDA:0,_ZL18__gluInvertMatrixdPKdPd
FNDA:0,_ZL18__gluMultMatricesdPKdS0_Pd
FNDA:0,gluProject
FNDA:0,gluUnProject
FNDA:0,gluUnProject4
FNDA:0,gluPickMatrix
FNF:16
FNH:8
DA:12,1
DA:14,1
DA:15,1
DA:16,1
DA:17,1
DA:18,1
DA:20,1
DA:22,1
DA:23,1
DA:24,1
DA:25,1
DA:26,1
DA:29,0
DA:32,0
DA:37,1
DA:41,1
DA:42,17
DA:43,16
DA:44,1
DA:49,1
DA:53,1
DA:55,1
DA:56,1
DA:57,1
DA:58,0
DA:62,1
DA:64,1
DA:65,1
DA:66,1
DA:67,1
DA:68,1
DA:69,1
DA:70,1
DA:71,1
DA:74,2
DA:78,2
DA:79,2
DA:81,2
DA:82,2
DA:83,2
DA:86,2
DA:88,2
DA:89,2
DA:90,2
DA:91,2
DA:106,1
DA:109,1
DA:110,1
DA:113,1
DA:120,1
DA:121,1
DA:122,1
DA:124,1
DA:125,1
DA:126,1
DA:128,1
DA:131,1
DA:132,1
DA:135,1
DA:137,1
DA:138,1
DA:139,1
DA:140,1
DA:142,1
DA:143,1
DA:144,1
DA:146,1
DA:147,1
DA:148,1
DA:150,1
DA:151,1
DA:152,1
DA:154,0
DA:159,0
DA:160,0
DA:161,0
DA:162,0
DA:163,0
DA:164,0
DA:166,0
DA:172,0
DA:177,0
DA:178,0
DA:179,0
DA:180,0
DA:181,0
DA:182,0
DA:183,0
DA:184,0
DA:185,0
DA:186,0
DA:187,0
DA:188,0
DA:189,0
DA:190,0
DA:191,0
DA:192,0
DA:193,0
DA:194,0
DA:195,0
DA:196,0
DA:197,0
DA:198,0
DA:199,0
DA:200,0
DA:201,0
DA:202,0
DA:203,0
DA:204,0
DA:205,0
DA:206,0
DA:207,0
DA:208,0
DA:210,0
DA:211,0
DA:212,0
DA:214,0
DA:216,0
DA:217,0
DA:219,0
DA:222,0
DA:227,0
DA:228,0
DA:229,0
DA:230,0
DA:231,0
DA:232,0
DA:233,0
DA:236,0
DA:239,0
DA:248,0
DA:249,0
DA:250,0
DA:251,0
DA:252,0
DA:253,0
DA:254,0
DA:255,0
DA:256,0
DA:257,0
DA:259,0
DA:260,0
DA:261,0
DA:264,0
DA:265,0
DA:267,0
DA:268,0
DA:269,0
DA:270,0
DA:274,0
DA:284,0
DA:285,0
DA:287,0
DA:288,0
DA:289,0
DA:290,0
DA:293,0
DA:294,0
DA:297,0
DA:298,0
DA:299,0
DA:301,0
DA:302,0
DA:303,0
DA:304,0
DA:305,0
DA:306,0
DA:307,0
DA:308,0
DA:309,0
DA:315,0
DA:327,0
DA:328,0
DA:330,0
DA:331,0
DA:332,0
DA:333,0
DA:336,0
DA:337,0
DA:338,0
DA:341,0
DA:342,0
DA:343,0
DA:345,0
DA:346,0
DA:347,0
DA:348,0
DA:349,0
DA:350,0
DA:351,0
DA:355,0
DA:358,0
DA:359,0
DA:363,0
DA:364,0
DA:365,0
LF:196
LH:69
end_of_record
TN:
SF:/data/tzwang/graphics/ReduceGL/Draw04/GlLib/misc.cpp
FN:4,_Z12glopViewportP9GLContextP7GLParam
FN:45,_Z17glopEnableDisableP9GLContextP7GLParam
FN:93,_Z14glopShadeModelP9GLContextP7GLParam
FN:99,_Z12glopCullFaceP9GLContextP7GLParam
FN:105,_Z13glopFrontFaceP9GLContextP7GLParam
FN:111,_Z15glopPolygonModeP9GLContextP7GLParam
FN:132,_Z8glopHintP9GLContextP7GLParam
FN:143,_Z17glopPolygonOffsetP9GLContextP7GLParam
FNDA:2,_Z12glopViewportP9GLContextP7GLParam
FNDA:8,_Z17glopEnableDisableP9GLContextP7GLParam
FNDA:0,_Z14glopShadeModelP9GLContextP7GLParam
FNDA:0,_Z12glopCullFaceP9GLContextP7GLParam
FNDA:0,_Z13glopFrontFaceP9GLContextP7GLParam
FNDA:0,_Z15glopPolygonModeP9GLContextP7GLParam
FNDA:0,_Z8glopHintP9GLContextP7GLParam
FNDA:0,_Z17glopPolygonOffsetP9GLContextP7GLParam
FNF:8
FNH:2
DA:4,2
DA:8,2
DA:9,2
DA:10,2
DA:11,2
DA:15,4
DA:16,4
DA:17,3
DA:18,1
DA:20,1
DA:21,1
DA:23,1
DA:24,0
DA:25,0
DA:28,1
DA:29,1
DA:30,1
DA:31,0
DA:35,1
DA:36,1
DA:37,1
DA:38,1
DA:39,1
DA:41,1
DA:43,2
DA:45,8
DA:47,8
DA:48,8
DA:50,8
DA:52,1
DA:53,1
DA:55,2
DA:56,2
DA:58,0
DA:59,0
DA:61,0
DA:62,0
DA:64,1
DA:65,1
DA:67,2
DA:68,2
DA:70,0
DA:71,0
DA:72,0
DA:74,0
DA:75,0
DA:76,0
DA:78,0
DA:79,0
DA:80,0
DA:82,2
DA:83,2
DA:89,2
DA:91,8
DA:93,0
DA:95,0
DA:96,0
DA:97,0
DA:99,0
DA:101,0
DA:102,0
DA:103,0
DA:105,0
DA:107,0
DA:108,0
DA:109,0
DA:111,0
DA:113,0
DA:114,0
DA:116,0
DA:118,0
DA:119,0
DA:121,0
DA:122,0
DA:124,0
DA:125,0
DA:126,0
DA:128,0
DA:130,0
DA:132,0
DA:140,0
DA:143,0
DA:145,0
DA:146,0
DA:147,0
LF:85
LH:38
end_of_record
TN:
SF:/data/tzwang/graphics/ReduceGL/Draw04/GlLib/texture.cpp
FN:8,_ZL12find_textureP9GLContexti
FN:20,_ZL12free_textureP9GLContexti
FN:44,_Z13alloc_textureP9GLContexti
FN:63,_Z14glInitTexturesP9GLContext
FN:71,glGenTextures
FN:92,glDeleteTextures
FN:110,_Z15glopBindTextureP9GLContextP7GLParam
FN:125,_Z14glopTexImage2DP9GLContextP7GLParam
FN:185,_Z10glopTexEnvP9GLContextP7GLParam
FN:202,_Z16glopTexParameterP9GLContextP7GLParam
FN:221,_Z14glopPixelStoreP9GLContextP7GLParam
FNDA:1,_ZL12find_textureP9GLContexti
FNDA:0,_ZL12free_textureP9GLContexti
FNDA:1,_Z13alloc_textureP9GLContexti
FNDA:1,_Z14glInitTexturesP9GLContext
FNDA:0,glGenTextures
FNDA:0,glDeleteTextures
FNDA:0,_Z15glopBindTextureP9GLContextP7GLParam
FNDA:0,_Z14glopTexImage2DP9GLContextP7GLParam
FNDA:0,_Z10glopTexEnvP9GLContextP7GLParam
FNDA:0,_Z16glopTexParameterP9GLContextP7GLParam
FNDA:0,_Z14glopPixelStoreP9GLContextP7GLParam
FNF:11
FNH:3
DA:8,1
DA:12,1
DA:13,1
DA:14,1
DA:15,0
DA:17,0
DA:20,0
DA:26,0
DA:27,0
DA:28,0
DA:29,0
DA:30,0
DA:32,0
DA:34,0
DA:36,0
DA:37,0
DA:38,0
DA:41,0
DA:42,0
DA:44,1
DA:48,1
DA:50,1
DA:52,1
DA:53,1
DA:54,1
DA:55,1
DA:57,1
DA:59,1
DA:63,1
DA:67,1
DA:68,1
DA:69,1
DA:71,0
DA:73,0
DA:77,0
DA:78,0
DA:79,0
DA:80,0
DA:81,0
DA:82,0
DA:86,0
DA:87,0
DA:89,0
DA:92,0
DA:94,0
DA:98,0
DA:99,0
DA:100,0
DA:101,0
DA:102,0
DA:104,0
DA:107,0
DA:110,0
DA:112,0
DA:113,0
DA:116,0
DA:118,0
DA:119,0
DA:120,0
DA:122,0
DA:123,0
DA:125,0
DA:127,0
DA:128,0
DA:129,0
DA:130,0
DA:131,0
DA:132,0
DA:133,0
DA:134,0
DA:135,0
DA:140,0
DA:141,0
DA:142,0
DA:143,0
DA:146,0
DA:147,0
DA:148,0
DA:150,0
DA:151,0
DA:152,0
DA:153,0
DA:155,0
DA:158,0
DA:159,0
DA:160,0
DA:161,0
DA:163,0
DA:164,0
DA:165,0
DA:180,0
DA:181,0
DA:185,0
DA:187,0
DA:188,0
DA:189,0
DA:191,0
DA:193,0
DA:196,0
DA:198,0
DA:199,0
DA:202,0
DA:204,0
DA:205,0
DA:206,0
DA:208,0
DA:210,0
DA:213,0
DA:216,0
DA:217,0
DA:219,0
DA:221,0
DA:223,0
DA:224,0
DA:226,0
DA:228,0
DA:230,0
LF:117
LH:17
end_of_record
TN:
SF:/data/tzwang/graphics/ReduceGL/Draw04/GlLib/error.cpp
FN:4,_Z14gl_fatal_errorPcz
FNDA:0,_Z14gl_fatal_errorPcz
FNF:1
FNH:0
DA:4,0
DA:8,0
DA:10,0
DA:11,0
DA:12,0
DA:13,0
LF:6
LH:0
end_of_record
TN:
SF:/data/tzwang/graphics/ReduceGL/Draw04/GlLib/matrix.cpp
FN:3,_Z15gl_print_matrixPKf
FN:12,_ZL16gl_matrix_updateP9GLContext
FN:18,_Z14glopMatrixModeP9GLContextP7GLParam
FN:36,_Z14glopLoadMatrixP9GLContextP7GLParam
FN:57,_Z16glopLoadIdentityP9GLContextP7GLParam
FN:65,_Z14glopMultMatrixP9GLContextP7GLParam
FN:87,_Z14glopPushMatrixP9GLContextP7GLParam
FN:102,_Z13glopPopMatrixP9GLContextP7GLParam
FN:112,_Z10glopRotateP9GLContextP7GLParam
FN:182,_Z9glopScaleP9GLContextP7GLParam
FN:196,_Z13glopTranslateP9GLContextP7GLParam
FN:212,_Z11glopFrustumP9GLContextP7GLParam
FNDA:0,_Z15gl_print_matrixPKf
FNDA:24,_ZL16gl_matrix_updateP9GLContext
FNDA:7,_Z14glopMatrixModeP9GLContextP7GLParam
FNDA:0,_Z14glopLoadMatrixP9GLContextP7GLParam
FNDA:7,_Z16glopLoadIdentityP9GLContextP7GLParam
FNDA:2,_Z14glopMultMatrixP9GLContextP7GLParam
FNDA:4,_Z14glopPushMatrixP9GLContextP7GLParam
FNDA:4,_Z13glopPopMatrixP9GLContextP7GLParam
FNDA:1,_Z10glopRotateP9GLContextP7GLParam
FNDA:1,_Z9glopScaleP9GLContextP7GLParam
FNDA:4,_Z13glopTranslateP9GLContextP7GLParam
FNDA:1,_Z11glopFrustumP9GLContextP7GLParam
FNF:12
FNH:10
DA:3,0
DA:7,0
DA:8,0
DA:10,0
DA:12,24
DA:14,24
DA:15,24
DA:18,7
DA:20,7
DA:21,7
DA:23,3
DA:24,3
DA:26,3
DA:27,3
DA:29,1
DA:30,1
DA:32,0
DA:34,7
DA:36,0
DA:43,0
DA:44,0
DA:46,0
DA:47,0
DA:48,0
DA:49,0
DA:50,0
DA:51,0
DA:54,0
DA:55,0
DA:57,7
DA:60,7
DA:62,7
DA:63,7
DA:65,2
DA:71,2
DA:73,10
DA:74,8
DA:75,8
DA:76,8
DA:77,8
DA:78,8
DA:81,2
DA:83,2
DA:84,2
DA:87,4
DA:89,4
DA:92,4
DA:93,4
DA:95,4
DA:97,4
DA:99,4
DA:100,4
DA:102,4
DA:104,4
DA:106,4
DA:107,4
DA:108,4
DA:109,4
DA:112,1
DA:119,1
DA:120,1
DA:121,1
DA:122,1
DA:125,1
DA:127,1
DA:129,1
DA:130,1
DA:132,0
DA:133,0
DA:134,0
DA:136,0
DA:137,0
DA:138,0
DA:140,0
DA:141,0
DA:142,0
DA:148,0
DA:149,0
DA:150,0
DA:151,0
DA:152,0
DA:153,0
DA:156,0
DA:157,0
DA:160,0
DA:161,0
DA:162,0
DA:165,0
DA:166,0
DA:167,0
DA:168,0
DA:169,0
DA:170,0
DA:171,0
DA:172,0
DA:173,0
DA:177,1
DA:179,1
DA:182,1
DA:185,1
DA:187,1
DA:189,1
DA:190,1
DA:191,1
DA:192,1
DA:193,1
DA:194,1
DA:196,4
DA:199,4
DA:201,4
DA:203,4
DA:204,4
DA:205,4
DA:206,4
DA:208,4
DA:209,4
DA:212,1
DA:216,1
DA:217,1
DA:218,1
DA:219,1
DA:220,1
DA:221,1
DA:224,1
DA:225,1
DA:226,1
DA:227,1
DA:228,1
DA:229,1
DA:231,1
DA:232,1
DA:233,1
DA:234,1
DA:235,1
DA:237,1
DA:239,1
DA:240,1
LF:137
LH:92
end_of_record
TN:
SF:/data/tzwang/graphics/ReduceGL/Draw04/GlLib/msghandling.cpp
FN:15,_Z11tgl_warningPKcz
FN:28,_Z9tgl_tracePKcz
FN:43,_Z9tgl_fixmePKcz
FNDA:0,_Z11tgl_warningPKcz
FNDA:1,_Z9tgl_tracePKcz
FNDA:0,_Z9tgl_fixmePKcz
FNF:3
FNH:1
DA:15,0
DA:24,0
DA:28,1
DA:37,1
DA:43,0
DA:52,0
LF:6
LH:2
end_of_record
TN:
SF:/data/tzwang/graphics/ReduceGL/Draw04/GlLib/light.cpp
FN:4,_Z12glopMaterialP9GLContextP7GLParam
FN:59,_Z17glopColorMaterialP9GLContextP7GLParam
FN:68,_Z9glopLightP9GLContextP7GLParam
FN:141,_Z14glopLightModelP9GLContextP7GLParam
FN:166,_ZL6clampffff
FN:173,_Z23gl_enable_disable_lightP9GLContextii
FN:190,_Z15gl_shade_vertexP9GLContextP8GLVertex
FNDA:8,_Z12glopMaterialP9GLContextP7GLParam
FNDA:0,_Z17glopColorMaterialP9GLContextP7GLParam
FNDA:4,_Z9glopLightP9GLContextP7GLParam
FNDA:0,_Z14glopLightModelP9GLContextP7GLParam
FNDA:144,_ZL6clampffff
FNDA:2,_Z23gl_enable_disable_lightP9GLContextii
FNDA:36,_Z15gl_shade_vertexP9GLContextP8GLVertex
FNF:7
FNH:5
DA:4,8
DA:6,8
DA:7,8
DA:10,8
DA:11,8
DA:12,8
DA:13,8
DA:14,8
DA:19,8
DA:20,4
DA:21,4
DA:22,4
DA:24,8
DA:25,4
DA:27,8
DA:29,0
DA:30,0
DA:31,0
DA:33,10
DA:34,8
DA:35,2
DA:37,10
DA:38,8
DA:39,2
DA:41,10
DA:42,8
DA:43,2
DA:45,2
DA:46,2
DA:47,2
DA:49,0
DA:50,0
DA:51,0
DA:52,0
DA:53,0
DA:55,0
DA:57,8
DA:59,0
DA:61,0
DA:62,0
DA:64,0
DA:65,0
DA:66,0
DA:68,4
DA:70,4
DA:71,4
DA:76,4
DA:78,4
DA:80,4
DA:82,4
DA:84,0
DA:85,0
DA:87,0
DA:88,0
DA:90,0
DA:91,0
DA:95,2
DA:97,2
DA:99,2
DA:100,1
DA:101,1
DA:102,1
DA:104,1
DA:107,2
DA:109,4
DA:110,3
DA:111,3
DA:113,1
DA:114,1
DA:116,0
DA:117,0
DA:120,1
DA:121,1
DA:122,1
DA:123,1
DA:125,1
DA:127,0
DA:128,0
DA:130,0
DA:131,0
DA:133,0
DA:134,0
DA:136,0
DA:138,4
DA:141,0
DA:143,0
DA:144,0
DA:147,0
DA:149,0
DA:150,0
DA:151,0
DA:153,0
DA:154,0
DA:156,0
DA:157,0
DA:159,0
DA:161,0
DA:163,0
DA:166,144
DA:168,144
DA:169,144
DA:170,144
DA:173,2
DA:175,2
DA:176,2
DA:177,1
DA:178,1
DA:179,1
DA:180,1
DA:181,1
DA:182,0
DA:183,0
DA:184,0
DA:185,0
DA:187,2
DA:190,36
DA:197,36
DA:199,36
DA:201,36
DA:202,36
DA:203,36
DA:205,36
DA:206,36
DA:207,36
DA:208,36
DA:210,72
DA:214,36
DA:215,36
DA:216,36
DA:218,36
DA:220,0
DA:221,0
DA:222,0
DA:223,0
DA:226,36
DA:227,36
DA:228,36
DA:229,36
DA:230,36
DA:231,36
DA:232,36
DA:233,36
DA:234,36
DA:236,72
DA:237,72
DA:239,36
DA:240,36
DA:241,36
DA:243,18
DA:244,18
DA:245,18
DA:248,18
DA:249,0
DA:250,0
DA:251,0
DA:252,0
DA:253,0
DA:255,0
DA:258,0
DA:259,0
DA:266,18
DA:268,0
DA:269,0
DA:270,0
DA:271,0
DA:272,0
DA:273,0
DA:274,0
DA:276,18
DA:277,18
DA:278,18
DA:280,18
DA:281,18
DA:282,18
DA:285,12
DA:286,12
DA:287,12
DA:293,12
DA:294,12
DA:295,12
DA:296,12
DA:297,12
DA:298,12
DA:299,12
DA:303,36
DA:304,36
DA:305,36
DA:308,36
DA:309,36
DA:310,36
DA:311,36
DA:312,36
LF:192
LH:125
end_of_record
TN:
SF:/data/tzwang/graphics/ReduceGL/Draw04/GlLib/clear.cpp
FN:4,_Z14glopClearColorP9GLContextP7GLParam
FN:11,_Z14glopClearDepthP9GLContextP7GLParam
FN:17,_Z9glopClearP9GLContextP7GLParam
FNDA:1,_Z14glopClearColorP9GLContextP7GLParam
FNDA:0,_Z14glopClearDepthP9GLContextP7GLParam
FNDA:2,_Z9glopClearP9GLContextP7GLParam
FNF:3
FNH:2
DA:4,1
DA:6,1
DA:7,1
DA:8,1
DA:9,1
DA:10,1
DA:11,0
DA:13,0
DA:14,0
DA:17,2
DA:19,2
DA:20,2
DA:21,2
DA:22,2
DA:23,2
DA:27,2
DA:28,2
DA:29,2
LF:18
LH:15
end_of_record
TN:
SF:/data/tzwang/graphics/ReduceGL/Draw04/GlLib/zline.cpp
FN:6,_Z7ZB_plotP7ZBufferP12ZBufferPoint
FN:28,_ZL14ZB_line_flat_zP7ZBufferP12ZBufferPointS2_i
FN:37,_ZL16ZB_line_interp_zP7ZBufferP12ZBufferPointS2_
FN:44,_ZL12ZB_line_flatP7ZBufferP12ZBufferPointS2_i
FN:51,_ZL14ZB_line_interpP7ZBufferP12ZBufferPointS2_
FN:56,_Z9ZB_line_zP7ZBufferP12ZBufferPointS2_
FN:71,_Z7ZB_lineP7ZBufferP12ZBufferPointS2_
FNDA:0,_Z7ZB_plotP7ZBufferP12ZBufferPoint
FNDA:0,_ZL14ZB_line_flat_zP7ZBufferP12ZBufferPointS2_i
FNDA:0,_ZL16ZB_line_interp_zP7ZBufferP12ZBufferPointS2_
FNDA:0,_ZL12ZB_line_flatP7ZBufferP12ZBufferPointS2_i
FNDA:0,_ZL14ZB_line_interpP7ZBufferP12ZBufferPointS2_
FNDA:0,_Z9ZB_line_zP7ZBufferP12ZBufferPointS2_
FNDA:0,_Z7ZB_lineP7ZBufferP12ZBufferPointS2_
FNF:7
FNH:0
DA:6,0
DA:12,0
DA:13,0
DA:14,0
DA:15,0
DA:17,0
DA:18,0
DA:19,0
DA:23,0
DA:25,0
DA:28,0
DA:32,0
DA:37,0
DA:40,0
DA:44,0
DA:48,0
DA:51,0
DA:54,0
DA:56,0
DA:60,0
DA:61,0
DA:64,0
DA:65,0
DA:67,0
DA:69,0
DA:71,0
DA:75,0
DA:76,0
DA:79,0
DA:80,0
DA:82,0
DA:84,0
LF:32
LH:0
end_of_record
SF:/data/tzwang/graphics/ReduceGL/Draw04/GlLib/zline.h
DA:17,0
DA:19,0
DA:20,0
DA:21,0
DA:23,0
DA:24,0
DA:26,0
DA:27,0
DA:30,0
DA:31,0
DA:33,0
DA:34,0
DA:35,0
DA:38,0
DA:39,0
DA:40,0
DA:95,0
DA:96,0
DA:97,0
DA:98,0
DA:99,0
DA:101,0
DA:104,0
DA:105,0
DA:106,0
DA:108,0
LF:26
LH:0
end_of_record
TN:
SF:/data/tzwang/graphics/ReduceGL/Draw04/GlLib/zdither.cpp
FN:35,_Z13ZB_initDitherP7ZBufferiPhPi
FN:75,_Z14ZB_closeDitherP7ZBuffer
FN:105,_Z20ZB_ditherFrameBufferP7ZBufferPhi
FNDA:0,_Z13ZB_initDitherP7ZBufferiPhPi
FNDA:0,_Z14ZB_closeDitherP7ZBuffer
FNDA:0,_Z20ZB_ditherFrameBufferP7ZBufferPhi
FNF:3
FNH:0
DA:35,0
DA:40,0
DA:41,0
DA:42,0
DA:45,0
DA:47,0
DA:48,0
DA:50,0
DA:51,0
DA:52,0
DA:53,0
DA:54,0
DA:55,0
DA:56,0
DA:57,0
DA:58,0
DA:59,0
DA:64,0
DA:66,0
DA:67,0
DA:68,0
DA:69,0
DA:70,0
DA:71,0
DA:73,0
DA:75,0
DA:77,0
DA:78,0
DA:79,0
DA:105,0
DA:112,0
DA:116,0
DA:118,0
DA:119,0
DA:124,0
DA:125,0
DA:127,0
DA:128,0
DA:129,0
DA:131,0
DA:132,0
DA:133,0
DA:134,0
DA:136,0
DA:137,0
DA:139,0
DA:140,0
DA:141,0
DA:142,0
DA:144,0
DA:145,0
DA:146,0
DA:147,0
DA:149,0
DA:150,0
DA:152,0
DA:153,0
DA:157,0
LF:58
LH:0
end_of_record
TN:
SF:/data/tzwang/graphics/ReduceGL/Draw04/GlLib/select.cpp
FN:3,glRenderMode
FN:42,glSelectBuffer
FN:53,_Z13glopInitNamesP9GLContextP7GLParam
FN:61,_Z12glopPushNameP9GLContextP7GLParam
FN:70,_Z11glopPopNameP9GLContextP7GLParam
FN:79,_Z12glopLoadNameP9GLContextP7GLParam
FN:88,_Z13gl_add_selectP9GLContextjj
FNDA:0,glRenderMode
FNDA:0,glSelectBuffer
FNDA:0,_Z13glopInitNamesP9GLContextP7GLParam
FNDA:0,_Z12glopPushNameP9GLContextP7GLParam
FNDA:0,_Z11glopPopNameP9GLContextP7GLParam
FNDA:0,_Z12glopLoadNameP9GLContextP7GLParam
FNDA:0,_Z13gl_add_selectP9GLContextjj
FNF:7
FNH:0
DA:3,0
DA:5,0
DA:6,0
DA:8,0
DA:10,0
DA:12,0
DA:13,0
DA:15,0
DA:17,0
DA:18,0
DA:19,0
DA:20,0
DA:22,0
DA:24,0
DA:26,0
DA:27,0
DA:29,0
DA:30,0
DA:31,0
DA:32,0
DA:33,0
DA:34,0
DA:35,0
DA:37,0
DA:39,0
DA:42,0
DA:44,0
DA:46,0
DA:48,0
DA:49,0
DA:50,0
DA:53,0
DA:55,0
DA:56,0
DA:57,0
DA:59,0
DA:61,0
DA:63,0
DA:64,0
DA:65,0
DA:66,0
DA:68,0
DA:70,0
DA:72,0
DA:73,0
DA:74,0
DA:75,0
DA:77,0
DA:79,0
DA:81,0
DA:82,0
DA:83,0
DA:84,0
DA:86,0
DA:88,0
DA:93,0
DA:94,0
DA:95,0
DA:96,0
DA:97,0
DA:98,0
DA:100,0
DA:101,0
DA:102,0
DA:103,0
DA:104,0
DA:105,0
DA:106,0
DA:107,0
DA:110,0
DA:111,0
DA:114,0
LF:72
LH:0
end_of_record
TN:
SF:/data/tzwang/graphics/ReduceGL/Draw04/GlLib/specbuf.cpp
FN:6,_ZL8calc_bufP9GLSpecBuff
FN:19,_Z18specbuf_get_bufferP9GLContextif
FNDA:1,_ZL8calc_bufP9GLSpecBuff
FNDA:12,_Z18specbuf_get_bufferP9GLContextif
FNF:2
FNH:2
DA:6,1
DA:10,1
DA:11,1
DA:12,1026
DA:13,1025
DA:14,1025
DA:16,1
DA:19,12
DA:23,12
DA:24,12
DA:25,0
DA:26,0
DA:28,0
DA:30,12
DA:31,11
DA:32,11
DA:34,1
DA:36,1
DA:37,1
DA:38,1
DA:39,1
DA:40,1
DA:41,1
DA:42,1
DA:43,1
DA:44,1
DA:48,0
DA:49,0
DA:50,0
DA:51,0
LF:30
LH:23
end_of_record
TN:
SF:/usr/include/c++/5/bits/allocator.h
FN:113,_ZNSaINSt7__cxx1112basic_stringIcSt11char_traitsIcESaIcEEEEC2Ev
FN:113,_ZNSaIP14TransformationEC2Ev
FN:113,_ZNSaIP8StlShapeEC2Ev
FN:113,_ZNSaI8triangleEC2Ev
FN:121,_ZNSaINSt7__cxx1112basic_stringIcSt11char_traitsIcESaIcEEEED2Ev
FN:121,_ZNSaI8triangleED2Ev
FN:121,_ZNSaIP8StlShapeED2Ev
FN:121,_ZNSaIP14TransformationED2Ev
FNDA:2,_ZNSaINSt7__cxx1112basic_stringIcSt11char_traitsIcESaIcEEEEC2Ev
FNDA:1,_ZNSaIP14TransformationEC2Ev
FNDA:1,_ZNSaIP8StlShapeEC2Ev
FNDA:1,_ZNSaI8triangleEC2Ev
FNDA:2,_ZNSaINSt7__cxx1112basic_stringIcSt11char_traitsIcESaIcEEEED2Ev
FNDA:0,_ZNSaIP14TransformationED2Ev
FNDA:0,_ZNSaIP8StlShapeED2Ev
FNDA:0,_ZNSaI8triangleED2Ev
FNF:8
FNH:5
DA:113,5
DA:121,2
LF:2
LH:2
end_of_record
SF:/usr/include/c++/5/bits/basic_string.h
FN:4783,_ZStplIcSt11char_traitsIcESaIcEENSt7__cxx1112basic_stringIT_T0_T1_EERKS8_SA_
FN:4820,_ZStplIcSt11char_traitsIcESaIcEENSt7__cxx1112basic_stringIT_T0_T1_EERKS8_PKS5_
FN:4937,_ZSteqIcSt11char_traitsIcESaIcEEbRKNSt7__cxx1112basic_stringIT_T0_T1_EEPKS5_
FN:4974,_ZStneIcSt11char_traitsIcESaIcEEbRKNSt7__cxx1112basic_stringIT_T0_T1_EEPKS5_
FNDA:1,_ZStplIcSt11char_traitsIcESaIcEENSt7__cxx1112basic_stringIT_T0_T1_EERKS8_SA_
FNDA:7,_ZStplIcSt11char_traitsIcESaIcEENSt7__cxx1112basic_stringIT_T0_T1_EERKS8_PKS5_
FNDA:4,_ZSteqIcSt11char_traitsIcESaIcEEbRKNSt7__cxx1112basic_stringIT_T0_T1_EEPKS5_
FNDA:2,_ZStneIcSt11char_traitsIcESaIcEEbRKNSt7__cxx1112basic_stringIT_T0_T1_EEPKS5_
FNF:4
FNH:4
DA:4783,1
DA:4786,1
DA:4787,1
DA:4788,1
DA:4820,7
DA:4823,7
DA:4824,7
DA:4825,7
DA:4937,4
DA:4939,4
DA:4974,2
DA:4976,2
LF:12
LH:12
end_of_record
SF:/usr/include/c++/5/bits/ios_base.h
FN:129,_ZStorSt13_Ios_OpenmodeS_
FNDA:1,_ZStorSt13_Ios_OpenmodeS_
FNF:1
FNH:1
DA:129,1
DA:130,1
LF:2
LH:2
end_of_record
SF:/usr/include/c++/5/bits/move.h
FN:47,_ZSt11__addressofINSt7__cxx1112basic_stringIcSt11char_traitsIcESaIcEEEEPT_RS6_
FNDA:71,_ZSt11__addressofINSt7__cxx1112basic_stringIcSt11char_traitsIcESaIcEEEEPT_RS6_
FNF:1
FNH:1
DA:47,71
DA:50,71
LF:2
LH:2
end_of_record
SF:/usr/include/c++/5/bits/postypes.h
FN:133,_ZNSt4fposI11__mbstate_tEC2El
FNDA:1,_ZNSt4fposI11__mbstate_tEC2El
FNF:1
FNH:1
DA:133,1
DA:134,1
LF:2
LH:2
end_of_record
SF:/usr/include/c++/5/bits/stl_algobase.h
FN:195,_ZSt3minIdERKT_S2_S2_
FN:219,_ZSt3maxImERKT_S2_S2_
FN:282,_ZSt12__niter_baseIPNSt7__cxx1112basic_stringIcSt11char_traitsIcESaIcEEEENSt11_Niter_baseIT_E13iterator_typeES8_
FN:282,_ZSt12__niter_baseIP8triangleENSt11_Niter_baseIT_E13iterator_typeES3_
FN:282,_ZSt12__niter_baseIPP8StlShapeENSt11_Niter_baseIT_E13iterator_typeES4_
FN:282,_ZSt12__niter_baseIPP14TransformationENSt11_Niter_baseIT_E13iterator_typeES4_
FN:293,_ZSt12__miter_baseIPP8StlShapeENSt11_Miter_baseIT_E13iterator_typeES4_
FN:293,_ZSt12__miter_baseIPNSt7__cxx1112basic_stringIcSt11char_traitsIcESaIcEEEENSt11_Miter_baseIT_E13iterator_typeES8_
FN:293,_ZSt12__miter_baseIP8triangleENSt11_Miter_baseIT_E13iterator_typeES3_
FN:293,_ZSt12__miter_baseIPP14TransformationENSt11_Miter_baseIT_E13iterator_typeES4_
FN:373,_ZNSt11__copy_moveILb0ELb1ESt26random_access_iterator_tagE8__copy_mI8triangleEEPT_PKS4_S7_S5_
FN:373,_ZNSt11__copy_moveILb0ELb1ESt26random_access_iterator_tagE8__copy_mIP8StlShapeEEPT_PKS5_S8_S6_
FN:373,_ZNSt11__copy_moveILb0ELb1ESt26random_access_iterator_tagE8__copy_mIP14TransformationEEPT_PKS5_S8_S6_
FN:391,_ZSt13__copy_move_aILb0EPP8StlShapeS2_ET1_T0_S4_S3_
FN:391,_ZSt13__copy_move_aILb0EPP14TransformationS2_ET1_T0_S4_S3_
FN:391,_ZSt13__copy_move_aILb0EP8triangleS1_ET1_T0_S3_S2_
FN:436,_ZSt14__copy_move_a2ILb0EPP14TransformationS2_ET1_T0_S4_S3_
FN:436,_ZSt14__copy_move_a2ILb0EP8triangleS1_ET1_T0_S3_S2_
FN:436,_ZSt14__copy_move_a2ILb0EPP8StlShapeS2_ET1_T0_S4_S3_
FN:462,_ZSt4copyIPP8StlShapeS2_ET0_T_S4_S3_
FN:462,_ZSt4copyIP8triangleS1_ET0_T_S3_S2_
FN:462,_ZSt4copyIPP14TransformationS2_ET0_T_S4_S3_
FN:545,_ZNSt20__copy_move_backwardILb0ELb0ESt26random_access_iterator_tagE13__copy_move_bIPNSt7__cxx1112basic_stringIcSt11char_traitsIcESaIcEEES9_EET0_T_SB_SA_
FN:575,_ZNSt20__copy_move_backwardILb0ELb1ESt26random_access_iterator_tagE13__copy_move_bIP14TransformationEEPT_PKS5_S8_S6_
FN:575,_ZNSt20__copy_move_backwardILb0ELb1ESt26random_access_iterator_tagE13__copy_move_bIP8StlShapeEEPT_PKS5_S8_S6_
FN:575,_ZNSt20__copy_move_backwardILb0ELb1ESt26random_access_iterator_tagE13__copy_move_bI8triangleEEPT_PKS4_S7_S5_
FN:593,_ZSt22__copy_move_backward_aILb0EPP8StlShapeS2_ET1_T0_S4_S3_
FN:593,_ZSt22__copy_move_backward_aILb0EPNSt7__cxx1112basic_stringIcSt11char_traitsIcESaIcEEES6_ET1_T0_S8_S7_
FN:593,_ZSt22__copy_move_backward_aILb0EPP14TransformationS2_ET1_T0_S4_S3_
FN:593,_ZSt22__copy_move_backward_aILb0EP8triangleS1_ET1_T0_S3_S2_
FN:611,_ZSt23__copy_move_backward_a2ILb0EPP14TransformationS2_ET1_T0_S4_S3_
FN:611,_ZSt23__copy_move_backward_a2ILb0EPNSt7__cxx1112basic_stringIcSt11char_traitsIcESaIcEEES6_ET1_T0_S8_S7_
FN:611,_ZSt23__copy_move_backward_a2ILb0EPP8StlShapeS2_ET1_T0_S4_S3_
FN:611,_ZSt23__copy_move_backward_a2ILb0EP8triangleS1_ET1_T0_S3_S2_
FN:638,_ZSt13copy_backwardIP8triangleS1_ET0_T_S3_S2_
FN:638,_ZSt13copy_backwardIPNSt7__cxx1112basic_stringIcSt11char_traitsIcESaIcEEES6_ET0_T_S8_S7_
FN:638,_ZSt13copy_backwardIPP8StlShapeS2_ET0_T_S4_S3_
FN:638,_ZSt13copy_backwardIPP14TransformationS2_ET0_T_S4_S3_
FN:707,_ZSt8__fill_aIPP14TransformationS1_EN9__gnu_cxx11__enable_ifIXsrSt11__is_scalarIT0_E7__valueEvE6__typeET_SA_RKS6_
FN:707,_ZSt8__fill_aIPP8StlShapeS1_EN9__gnu_cxx11__enable_ifIXsrSt11__is_scalarIT0_E7__valueEvE6__typeET_SA_RKS6_
FN:740,_ZSt4fillIPP8StlShapeS1_EvT_S3_RKT0_
FN:740,_ZSt4fillIPP14TransformationS1_EvT_S3_RKT0_
FN:765,_ZSt10__fill_n_aIPP8StlShapemS1_EN9__gnu_cxx11__enable_ifIXsrSt11__is_scalarIT1_E7__valueET_E6__typeES8_T0_RKS6_
FN:765,_ZSt10__fill_n_aIPP14TransformationmS1_EN9__gnu_cxx11__enable_ifIXsrSt11__is_scalarIT1_E7__valueET_E6__typeES8_T0_RKS6_
FN:800,_ZSt6fill_nIPP14TransformationmS1_ET_S3_T0_RKT1_
FN:800,_ZSt6fill_nIPP8StlShapemS1_ET_S3_T0_RKT1_
FNDA:12,_ZSt3minIdERKT_S2_S2_
FNDA:15,_ZSt3maxImERKT_S2_S2_
FNDA:7,_ZSt12__niter_baseIPP14TransformationENSt11_Niter_baseIT_E13iterator_typeES4_
FNDA:7,_ZSt12__niter_baseIPP8StlShapeENSt11_Niter_baseIT_E13iterator_typeES4_
FNDA:30,_ZSt12__niter_baseIP8triangleENSt11_Niter_baseIT_E13iterator_typeES3_
FNDA:0,_ZSt12__niter_baseIPNSt7__cxx1112basic_stringIcSt11char_traitsIcESaIcEEEENSt11_Niter_baseIT_E13iterator_typeES8_
FNDA:4,_ZSt12__miter_baseIPP14TransformationENSt11_Miter_baseIT_E13iterator_typeES4_
FNDA:4,_ZSt12__miter_baseIPP8StlShapeENSt11_Miter_baseIT_E13iterator_typeES4_
FNDA:20,_ZSt12__miter_baseIP8triangleENSt11_Miter_baseIT_E13iterator_typeES3_
FNDA:0,_ZSt12__miter_baseIPNSt7__cxx1112basic_stringIcSt11char_traitsIcESaIcEEEENSt11_Miter_baseIT_E13iterator_typeES8_
FNDA:2,_ZNSt11__copy_moveILb0ELb1ESt26random_access_iterator_tagE8__copy_mIP14TransformationEEPT_PKS5_S8_S6_
FNDA:2,_ZNSt11__copy_moveILb0ELb1ESt26random_access_iterator_tagE8__copy_mIP8StlShapeEEPT_PKS5_S8_S6_
FNDA:10,_ZNSt11__copy_moveILb0ELb1ESt26random_access_iterator_tagE8__copy_mI8triangleEEPT_PKS4_S7_S5_
FNDA:2,_ZSt13__copy_move_aILb0EPP14TransformationS2_ET1_T0_S4_S3_
FNDA:2,_ZSt13__copy_move_aILb0EPP8StlShapeS2_ET1_T0_S4_S3_
FNDA:10,_ZSt13__copy_move_aILb0EP8triangleS1_ET1_T0_S3_S2_
FNDA:2,_ZSt14__copy_move_a2ILb0EPP14TransformationS2_ET1_T0_S4_S3_
FNDA:2,_ZSt14__copy_move_a2ILb0EPP8StlShapeS2_ET1_T0_S4_S3_
FNDA:10,_ZSt14__copy_move_a2ILb0EP8triangleS1_ET1_T0_S3_S2_
FNDA:2,_ZSt4copyIPP14TransformationS2_ET0_T_S4_S3_
FNDA:2,_ZSt4copyIPP8StlShapeS2_ET0_T_S4_S3_
FNDA:10,_ZSt4copyIP8triangleS1_ET0_T_S3_S2_
FNDA:0,_ZNSt20__copy_move_backwardILb0ELb0ESt26random_access_iterator_tagE13__copy_move_bIPNSt7__cxx1112basic_stringIcSt11char_traitsIcESaIcEEES9_EET0_T_SB_SA_
FNDA:0,_ZNSt20__copy_move_backwardILb0ELb1ESt26random_access_iterator_tagE13__copy_move_bIP14TransformationEEPT_PKS5_S8_S6_
FNDA:0,_ZNSt20__copy_move_backwardILb0ELb1ESt26random_access_iterator_tagE13__copy_move_bIP8StlShapeEEPT_PKS5_S8_S6_
FNDA:0,_ZNSt20__copy_move_backwardILb0ELb1ESt26random_access_iterator_tagE13__copy_move_bI8triangleEEPT_PKS4_S7_S5_
FNDA:0,_ZSt22__copy_move_backward_aILb0EPP14TransformationS2_ET1_T0_S4_S3_
FNDA:0,_ZSt22__copy_move_backward_aILb0EPP8StlShapeS2_ET1_T0_S4_S3_
FNDA:0,_ZSt22__copy_move_backward_aILb0EP8triangleS1_ET1_T0_S3_S2_
FNDA:0,_ZSt22__copy_move_backward_aILb0EPNSt7__cxx1112basic_stringIcSt11char_traitsIcESaIcEEES6_ET1_T0_S8_S7_
FNDA:0,_ZSt23__copy_move_backward_a2ILb0EPP14TransformationS2_ET1_T0_S4_S3_
FNDA:0,_ZSt23__copy_move_backward_a2ILb0EPP8StlShapeS2_ET1_T0_S4_S3_
FNDA:0,_ZSt23__copy_move_backward_a2ILb0EP8triangleS1_ET1_T0_S3_S2_
FNDA:0,_ZSt23__copy_move_backward_a2ILb0EPNSt7__cxx1112basic_stringIcSt11char_traitsIcESaIcEEES6_ET1_T0_S8_S7_
FNDA:0,_ZSt13copy_backwardIPP14TransformationS2_ET0_T_S4_S3_
FNDA:0,_ZSt13copy_backwardIPP8StlShapeS2_ET0_T_S4_S3_
FNDA:0,_ZSt13copy_backwardIP8triangleS1_ET0_T_S3_S2_
FNDA:0,_ZSt13copy_backwardIPNSt7__cxx1112basic_stringIcSt11char_traitsIcESaIcEEES6_ET0_T_S8_S7_
FNDA:0,_ZSt8__fill_aIPP14TransformationS1_EN9__gnu_cxx11__enable_ifIXsrSt11__is_scalarIT0_E7__valueEvE6__typeET_SA_RKS6_
FNDA:0,_ZSt8__fill_aIPP8StlShapeS1_EN9__gnu_cxx11__enable_ifIXsrSt11__is_scalarIT0_E7__valueEvE6__typeET_SA_RKS6_
FNDA:0,_ZSt4fillIPP14TransformationS1_EvT_S3_RKT0_
FNDA:0,_ZSt4fillIPP8StlShapeS1_EvT_S3_RKT0_
FNDA:1,_ZSt10__fill_n_aIPP14TransformationmS1_EN9__gnu_cxx11__enable_ifIXsrSt11__is_scalarIT1_E7__valueET_E6__typeES8_T0_RKS6_
FNDA:1,_ZSt10__fill_n_aIPP8StlShapemS1_EN9__gnu_cxx11__enable_ifIXsrSt11__is_scalarIT1_E7__valueET_E6__typeES8_T0_RKS6_
FNDA:1,_ZSt6fill_nIPP14TransformationmS1_ET_S3_T0_RKT1_
FNDA:1,_ZSt6fill_nIPP8StlShapemS1_ET_S3_T0_RKT1_
FNF:46
FNH:24
DA:195,12
DA:200,12
DA:201,3
DA:202,9
DA:219,15
DA:224,15
DA:225,5
DA:226,10
DA:282,44
DA:283,44
DA:293,28
DA:294,28
DA:373,14
DA:382,14
DA:383,14
DA:384,4
DA:385,14
DA:391,14
DA:399,14
DA:402,14
DA:436,14
DA:438,14
DA:440,14
DA:462,14
DA:471,14
DA:472,14
DA:545,0
DA:548,0
DA:549,0
DA:550,0
DA:575,0
DA:584,0
DA:585,0
DA:586,0
DA:587,0
DA:593,0
DA:601,0
DA:606,0
DA:611,0
DA:614,0
DA:615,0
DA:638,0
DA:649,0
DA:650,0
DA:707,0
DA:710,0
DA:711,0
DA:712,0
DA:713,0
DA:740,0
DA:747,0
DA:749,0
DA:765,2
DA:767,2
DA:768,4
DA:770,2
DA:771,2
DA:800,2
DA:805,2
LF:59
LH:33
end_of_record
SF:/usr/include/c++/5/bits/stl_construct.h
FN:79,_ZSt10_ConstructINSt7__cxx1112basic_stringIcSt11char_traitsIcESaIcEEES5_EvPT_RKT0_
FN:92,_ZSt8_DestroyINSt7__cxx1112basic_stringIcSt11char_traitsIcESaIcEEEEvPT_
FN:100,_ZNSt12_Destroy_auxILb0EE9__destroyIPNSt7__cxx1112basic_stringIcSt11char_traitsIcESaIcEEEEEvT_S9_
FN:112,_ZNSt12_Destroy_auxILb1EE9__destroyIP8triangleEEvT_S4_
FN:112,_ZNSt12_Destroy_auxILb1EE9__destroyIPP8StlShapeEEvT_S5_
FN:112,_ZNSt12_Destroy_auxILb1EE9__destroyIPP14TransformationEEvT_S5_
FN:122,_ZSt8_DestroyIPP8StlShapeEvT_S3_
FN:122,_ZSt8_DestroyIPNSt7__cxx1112basic_stringIcSt11char_traitsIcESaIcEEEEvT_S7_
FN:122,_ZSt8_DestroyIP8triangleEvT_S2_
FN:122,_ZSt8_DestroyIPP14TransformationEvT_S3_
FN:148,_ZSt8_DestroyIPP8StlShapeS1_EvT_S3_RSaIT0_E
FN:148,_ZSt8_DestroyIPNSt7__cxx1112basic_stringIcSt11char_traitsIcESaIcEEES5_EvT_S7_RSaIT0_E
FN:148,_ZSt8_DestroyIP8triangleS0_EvT_S2_RSaIT0_E
FN:148,_ZSt8_DestroyIPP14TransformationS1_EvT_S3_RSaIT0_E
FNDA:18,_ZSt10_ConstructINSt7__cxx1112basic_stringIcSt11char_traitsIcESaIcEEES5_EvPT_RKT0_
FNDA:53,_ZSt8_DestroyINSt7__cxx1112basic_stringIcSt11char_traitsIcESaIcEEEEvPT_
FNDA:14,_ZNSt12_Destroy_auxILb0EE9__destroyIPNSt7__cxx1112basic_stringIcSt11char_traitsIcESaIcEEEEEvT_S9_
FNDA:1,_ZNSt12_Destroy_auxILb1EE9__destroyIPP14TransformationEEvT_S5_
FNDA:1,_ZNSt12_Destroy_auxILb1EE9__destroyIPP8StlShapeEEvT_S5_
FNDA:5,_ZNSt12_Destroy_auxILb1EE9__destroyIP8triangleEEvT_S4_
FNDA:14,_ZSt8_DestroyIPNSt7__cxx1112basic_stringIcSt11char_traitsIcESaIcEEEEvT_S7_
FNDA:1,_ZSt8_DestroyIPP14TransformationEvT_S3_
FNDA:1,_ZSt8_DestroyIPP8StlShapeEvT_S3_
FNDA:5,_ZSt8_DestroyIP8triangleEvT_S2_
FNDA:14,_ZSt8_DestroyIPNSt7__cxx1112basic_stringIcSt11char_traitsIcESaIcEEES5_EvT_S7_RSaIT0_E
FNDA:1,_ZSt8_DestroyIPP14TransformationS1_EvT_S3_RSaIT0_E
FNDA:1,_ZSt8_DestroyIPP8StlShapeS1_EvT_S3_RSaIT0_E
FNDA:5,_ZSt8_DestroyIP8triangleS0_EvT_S2_RSaIT0_E
FNF:14
FNH:14
DA:79,18
DA:83,18
DA:84,18
DA:92,53
DA:93,53
DA:100,67
DA:102,120
DA:103,53
DA:104,14
DA:112,7
DA:122,21
DA:126,21
DA:128,21
DA:148,21
DA:151,21
DA:152,21
LF:16
LH:16
end_of_record
SF:/usr/include/c++/5/bits/stl_iterator.h
FN:740,_ZN9__gnu_cxx17__normal_iteratorIPP14TransformationSt6vectorIS2_SaIS2_EEEC2ERKS3_
FN:740,_ZN9__gnu_cxx17__normal_iteratorIPNSt7__cxx1112basic_stringIcSt11char_traitsIcESaIcEEESt6vectorIS6_SaIS6_EEEC2ERKS7_
FN:740,_ZN9__gnu_cxx17__normal_iteratorIPP8StlShapeSt6vectorIS2_SaIS2_EEEC2ERKS3_
FN:740,_ZN9__gnu_cxx17__normal_iteratorIP8triangleSt6vectorIS1_SaIS1_EEEC2ERKS2_
FN:753,_ZNK9__gnu_cxx17__normal_iteratorIPNSt7__cxx1112basic_stringIcSt11char_traitsIcESaIcEEESt6vectorIS6_SaIS6_EEEdeEv
FN:753,_ZNK9__gnu_cxx17__normal_iteratorIP8triangleSt6vectorIS1_SaIS1_EEEdeEv
FN:805,_ZNK9__gnu_cxx17__normal_iteratorIP8triangleSt6vectorIS1_SaIS1_EEE4baseEv
FN:805,_ZNK9__gnu_cxx17__normal_iteratorIPP14TransformationSt6vectorIS2_SaIS2_EEE4baseEv
FN:805,_ZNK9__gnu_cxx17__normal_iteratorIPP8StlShapeSt6vectorIS2_SaIS2_EEE4baseEv
FN:805,_ZNK9__gnu_cxx17__normal_iteratorIPNSt7__cxx1112basic_stringIcSt11char_traitsIcESaIcEEESt6vectorIS6_SaIS6_EEE4baseEv
FN:923,_ZN9__gnu_cxxmiIPP8StlShapeSt6vectorIS2_SaIS2_EEEENS_17__normal_iteratorIT_T0_E15difference_typeERKSA_SD_
FN:923,_ZN9__gnu_cxxmiIPNSt7__cxx1112basic_stringIcSt11char_traitsIcESaIcEEESt6vectorIS6_SaIS6_EEEENS_17__normal_iteratorIT_T0_E15difference_typeERKSE_SH_
FN:923,_ZN9__gnu_cxxmiIP8triangleSt6vectorIS1_SaIS1_EEEENS_17__normal_iteratorIT_T0_E15difference_typeERKS9_SC_
FN:923,_ZN9__gnu_cxxmiIPP14TransformationSt6vectorIS2_SaIS2_EEEENS_17__normal_iteratorIT_T0_E15difference_typeERKSA_SD_
FNDA:2,_ZN9__gnu_cxx17__normal_iteratorIPP14TransformationSt6vectorIS2_SaIS2_EEEC2ERKS3_
FNDA:2,_ZN9__gnu_cxx17__normal_iteratorIPP8StlShapeSt6vectorIS2_SaIS2_EEEC2ERKS3_
FNDA:10,_ZN9__gnu_cxx17__normal_iteratorIP8triangleSt6vectorIS1_SaIS1_EEEC2ERKS2_
FNDA:16,_ZN9__gnu_cxx17__normal_iteratorIPNSt7__cxx1112basic_stringIcSt11char_traitsIcESaIcEEESt6vectorIS6_SaIS6_EEEC2ERKS7_
FNDA:0,_ZNK9__gnu_cxx17__normal_iteratorIP8triangleSt6vectorIS1_SaIS1_EEEdeEv
FNDA:0,_ZNK9__gnu_cxx17__normal_iteratorIPNSt7__cxx1112basic_stringIcSt11char_traitsIcESaIcEEESt6vectorIS6_SaIS6_EEEdeEv
FNDA:4,_ZNK9__gnu_cxx17__normal_iteratorIPP14TransformationSt6vectorIS2_SaIS2_EEE4baseEv
FNDA:4,_ZNK9__gnu_cxx17__normal_iteratorIPP8StlShapeSt6vectorIS2_SaIS2_EEE4baseEv
FNDA:20,_ZNK9__gnu_cxx17__normal_iteratorIP8triangleSt6vectorIS1_SaIS1_EEE4baseEv
FNDA:32,_ZNK9__gnu_cxx17__normal_iteratorIPNSt7__cxx1112basic_stringIcSt11char_traitsIcESaIcEEESt6vectorIS6_SaIS6_EEE4baseEv
FNDA:1,_ZN9__gnu_cxxmiIPP14TransformationSt6vectorIS2_SaIS2_EEEENS_17__normal_iteratorIT_T0_E15difference_typeERKSA_SD_
FNDA:1,_ZN9__gnu_cxxmiIPP8StlShapeSt6vectorIS2_SaIS2_EEEENS_17__normal_iteratorIT_T0_E15difference_typeERKSA_SD_
FNDA:5,_ZN9__gnu_cxxmiIP8triangleSt6vectorIS1_SaIS1_EEEENS_17__normal_iteratorIT_T0_E15difference_typeERKS9_SC_
FNDA:8,_ZN9__gnu_cxxmiIPNSt7__cxx1112basic_stringIcSt11char_traitsIcESaIcEEESt6vectorIS6_SaIS6_EEEENS_17__normal_iteratorIT_T0_E15difference_typeERKSE_SH_
FNF:14
FNH:12
DA:740,30
DA:741,30
DA:753,0
DA:754,0
DA:805,60
DA:806,60
DA:923,15
DA:926,15
LF:8
LH:6
end_of_record
SF:/usr/include/c++/5/bits/stl_iterator_base_types.h
FN:215,_ZNSt10_Iter_baseIPP8StlShapeLb0EE7_S_baseES2_
FN:215,_ZNSt10_Iter_baseIPNSt7__cxx1112basic_stringIcSt11char_traitsIcESaIcEEELb0EE7_S_baseES6_
FN:215,_ZNSt10_Iter_baseIPP14TransformationLb0EE7_S_baseES2_
FN:215,_ZNSt10_Iter_baseIP8triangleLb0EE7_S_baseES1_
FNDA:11,_ZNSt10_Iter_baseIPP14TransformationLb0EE7_S_baseES2_
FNDA:11,_ZNSt10_Iter_baseIPP8StlShapeLb0EE7_S_baseES2_
FNDA:50,_ZNSt10_Iter_baseIP8triangleLb0EE7_S_baseES1_
FNDA:0,_ZNSt10_Iter_baseIPNSt7__cxx1112basic_stringIcSt11char_traitsIcESaIcEEELb0EE7_S_baseES6_
FNF:4
FNH:3
DA:215,72
DA:216,72
LF:2
LH:2
end_of_record
SF:/usr/include/c++/5/bits/stl_uninitialized.h
FN:68,_ZNSt20__uninitialized_copyILb0EE13__uninit_copyIPNSt7__cxx1112basic_stringIcSt11char_traitsIcESaIcEEES8_EET0_T_SA_S9_
FN:91,_ZNSt20__uninitialized_copyILb1EE13__uninit_copyIPP14TransformationS4_EET0_T_S6_S5_
FN:91,_ZNSt20__uninitialized_copyILb1EE13__uninit_copyIPP8StlShapeS4_EET0_T_S6_S5_
FN:91,_ZNSt20__uninitialized_copyILb1EE13__uninit_copyIP8triangleS3_EET0_T_S5_S4_
FN:107,_ZSt18uninitialized_copyIPP8StlShapeS2_ET0_T_S4_S3_
FN:107,_ZSt18uninitialized_copyIPNSt7__cxx1112basic_stringIcSt11char_traitsIcESaIcEEES6_ET0_T_S8_S7_
FN:107,_ZSt18uninitialized_copyIPP14TransformationS2_ET0_T_S4_S3_
FN:107,_ZSt18uninitialized_copyIP8triangleS1_ET0_T_S3_S2_
FN:218,_ZNSt22__uninitialized_fill_nILb1EE15__uninit_fill_nIPP14TransformationmS3_EET_S5_T0_RKT1_
FN:218,_ZNSt22__uninitialized_fill_nILb1EE15__uninit_fill_nIPP8StlShapemS3_EET_S5_T0_RKT1_
FN:236,_ZSt20uninitialized_fill_nIPP8StlShapemS1_ET_S3_T0_RKT1_
FN:236,_ZSt20uninitialized_fill_nIPP14TransformationmS1_ET_S3_T0_RKT1_
FN:279,_ZSt22__uninitialized_copy_aIP8triangleS1_S0_ET0_T_S3_S2_RSaIT1_E
FN:279,_ZSt22__uninitialized_copy_aIPP14TransformationS2_S1_ET0_T_S4_S3_RSaIT1_E
FN:279,_ZSt22__uninitialized_copy_aIPP8StlShapeS2_S1_ET0_T_S4_S3_RSaIT1_E
FN:279,_ZSt22__uninitialized_copy_aIPNSt7__cxx1112basic_stringIcSt11char_traitsIcESaIcEEES6_S5_ET0_T_S8_S7_RSaIT1_E
FN:286,_ZSt22__uninitialized_move_aIPP14TransformationS2_SaIS1_EET0_T_S5_S4_RT1_
FN:286,_ZSt22__uninitialized_move_aIPP8StlShapeS2_SaIS1_EET0_T_S5_S4_RT1_
FN:297,_ZSt34__uninitialized_move_if_noexcept_aIPNSt7__cxx1112basic_stringIcSt11char_traitsIcESaIcEEES6_SaIS5_EET0_T_S9_S8_RT1_
FN:297,_ZSt34__uninitialized_move_if_noexcept_aIPP14TransformationS2_SaIS1_EET0_T_S5_S4_RT1_
FN:297,_ZSt34__uninitialized_move_if_noexcept_aIP8triangleS1_SaIS0_EET0_T_S4_S3_RT1_
FN:297,_ZSt34__uninitialized_move_if_noexcept_aIPP8StlShapeS2_SaIS1_EET0_T_S5_S4_RT1_
FN:356,_ZSt24__uninitialized_fill_n_aIPP8StlShapemS1_S1_ET_S3_T0_RKT1_RSaIT2_E
FN:356,_ZSt24__uninitialized_fill_n_aIPP14TransformationmS1_S1_ET_S3_T0_RKT1_RSaIT2_E
FNDA:16,_ZNSt20__uninitialized_copyILb0EE13__uninit_copyIPNSt7__cxx1112basic_stringIcSt11char_traitsIcESaIcEEES8_EET0_T_SA_S9_
FNDA:2,_ZNSt20__uninitialized_copyILb1EE13__uninit_copyIPP14TransformationS4_EET0_T_S6_S5_
FNDA:2,_ZNSt20__uninitialized_copyILb1EE13__uninit_copyIPP8StlShapeS4_EET0_T_S6_S5_
FNDA:10,_ZNSt20__uninitialized_copyILb1EE13__uninit_copyIP8triangleS3_EET0_T_S5_S4_
FNDA:2,_ZSt18uninitialized_copyIPP14TransformationS2_ET0_T_S4_S3_
FNDA:2,_ZSt18uninitialized_copyIPP8StlShapeS2_ET0_T_S4_S3_
FNDA:10,_ZSt18uninitialized_copyIP8triangleS1_ET0_T_S3_S2_
FNDA:16,_ZSt18uninitialized_copyIPNSt7__cxx1112basic_stringIcSt11char_traitsIcESaIcEEES6_ET0_T_S8_S7_
FNDA:1,_ZNSt22__uninitialized_fill_nILb1EE15__uninit_fill_nIPP14TransformationmS3_EET_S5_T0_RKT1_
FNDA:1,_ZNSt22__uninitialized_fill_nILb1EE15__uninit_fill_nIPP8StlShapemS3_EET_S5_T0_RKT1_
FNDA:1,_ZSt20uninitialized_fill_nIPP14TransformationmS1_ET_S3_T0_RKT1_
FNDA:1,_ZSt20uninitialized_fill_nIPP8StlShapemS1_ET_S3_T0_RKT1_
FNDA:2,_ZSt22__uninitialized_copy_aIPP14TransformationS2_S1_ET0_T_S4_S3_RSaIT1_E
FNDA:2,_ZSt22__uninitialized_copy_aIPP8StlShapeS2_S1_ET0_T_S4_S3_RSaIT1_E
FNDA:10,_ZSt22__uninitialized_copy_aIP8triangleS1_S0_ET0_T_S3_S2_RSaIT1_E
FNDA:16,_ZSt22__uninitialized_copy_aIPNSt7__cxx1112basic_stringIcSt11char_traitsIcESaIcEEES6_S5_ET0_T_S8_S7_RSaIT1_E
FNDA:0,_ZSt22__uninitialized_move_aIPP14TransformationS2_SaIS1_EET0_T_S5_S4_RT1_
FNDA:0,_ZSt22__uninitialized_move_aIPP8StlShapeS2_SaIS1_EET0_T_S5_S4_RT1_
FNDA:2,_ZSt34__uninitialized_move_if_noexcept_aIPP14TransformationS2_SaIS1_EET0_T_S5_S4_RT1_
FNDA:2,_ZSt34__uninitialized_move_if_noexcept_aIPP8StlShapeS2_SaIS1_EET0_T_S5_S4_RT1_
FNDA:10,_ZSt34__uninitialized_move_if_noexcept_aIP8triangleS1_SaIS0_EET0_T_S4_S3_RT1_
FNDA:16,_ZSt34__uninitialized_move_if_noexcept_aIPNSt7__cxx1112basic_stringIcSt11char_traitsIcESaIcEEES6_SaIS5_EET0_T_S9_S8_RT1_
FNDA:1,_ZSt24__uninitialized_fill_n_aIPP14TransformationmS1_S1_ET_S3_T0_RKT1_RSaIT2_E
FNDA:1,_ZSt24__uninitialized_fill_n_aIPP8StlShapemS1_S1_ET_S3_T0_RKT1_RSaIT2_E
FNF:24
FNH:22
DA:68,16
DA:71,16
DA:74,52
DA:75,18
DA:76,16
DA:78,0
DA:80,0
DA:81,0
DA:91,14
DA:93,14
DA:107,30
DA:115,30
DA:126,30
DA:218,2
DA:220,2
DA:236,2
DA:241,2
DA:247,2
DA:279,30
DA:281,30
DA:286,0
DA:291,0
DA:297,30
DA:304,30
DA:356,2
DA:358,2
LF:26
LH:21
end_of_record
SF:/usr/include/c++/5/bits/stl_vector.h
FN:79,_ZNSt12_Vector_baseIP14TransformationSaIS1_EE12_Vector_implD2Ev
FN:79,_ZNSt12_Vector_baseINSt7__cxx1112basic_stringIcSt11char_traitsIcESaIcEEESaIS5_EE12_Vector_implD2Ev
FN:79,_ZNSt12_Vector_baseIP8StlShapeSaIS1_EE12_Vector_implD2Ev
FN:79,_ZNSt12_Vector_baseI8triangleSaIS0_EE12_Vector_implD2Ev
FN:86,_ZNSt12_Vector_baseINSt7__cxx1112basic_stringIcSt11char_traitsIcESaIcEEESaIS5_EE12_Vector_implC2Ev
FN:86,_ZNSt12_Vector_baseIP8StlShapeSaIS1_EE12_Vector_implC2Ev
FN:86,_ZNSt12_Vector_baseIP14TransformationSaIS1_EE12_Vector_implC2Ev
FN:86,_ZNSt12_Vector_baseI8triangleSaIS0_EE12_Vector_implC2Ev
FN:113,_ZNSt12_Vector_baseIP8StlShapeSaIS1_EE19_M_get_Tp_allocatorEv
FN:113,_ZNSt12_Vector_baseI8triangleSaIS0_EE19_M_get_Tp_allocatorEv
FN:113,_ZNSt12_Vector_baseINSt7__cxx1112basic_stringIcSt11char_traitsIcESaIcEEESaIS5_EE19_M_get_Tp_allocatorEv
FN:113,_ZNSt12_Vector_baseIP14TransformationSaIS1_EE19_M_get_Tp_allocatorEv
FN:117,_ZNKSt12_Vector_baseIP8StlShapeSaIS1_EE19_M_get_Tp_allocatorEv
FN:117,_ZNKSt12_Vector_baseIP14TransformationSaIS1_EE19_M_get_Tp_allocatorEv
FN:117,_ZNKSt12_Vector_baseI8triangleSaIS0_EE19_M_get_Tp_allocatorEv
FN:117,_ZNKSt12_Vector_baseINSt7__cxx1112basic_stringIcSt11char_traitsIcESaIcEEESaIS5_EE19_M_get_Tp_allocatorEv
FN:124,_ZNSt12_Vector_baseI8triangleSaIS0_EEC2Ev
FN:124,_ZNSt12_Vector_baseINSt7__cxx1112basic_stringIcSt11char_traitsIcESaIcEEESaIS5_EEC2Ev
FN:124,_ZNSt12_Vector_baseIP14TransformationSaIS1_EEC2Ev
FN:124,_ZNSt12_Vector_baseIP8StlShapeSaIS1_EEC2Ev
FN:159,_ZNSt12_Vector_baseIP8StlShapeSaIS1_EED2Ev
FN:159,_ZNSt12_Vector_baseI8triangleSaIS0_EED2Ev
FN:159,_ZNSt12_Vector_baseIP14TransformationSaIS1_EED2Ev
FN:159,_ZNSt12_Vector_baseINSt7__cxx1112basic_stringIcSt11char_traitsIcESaIcEEESaIS5_EED2Ev
FN:167,_ZNSt12_Vector_baseI8triangleSaIS0_EE11_M_allocateEm
FN:167,_ZNSt12_Vector_baseINSt7__cxx1112basic_stringIcSt11char_traitsIcESaIcEEESaIS5_EE11_M_allocateEm
FN:167,_ZNSt12_Vector_baseIP8StlShapeSaIS1_EE11_M_allocateEm
FN:167,_ZNSt12_Vector_baseIP14TransformationSaIS1_EE11_M_allocateEm
FN:174,_ZNSt12_Vector_baseIP14TransformationSaIS1_EE13_M_deallocateEPS1_m
FN:174,_ZNSt12_Vector_baseI8triangleSaIS0_EE13_M_deallocateEPS0_m
FN:174,_ZNSt12_Vector_baseIP8StlShapeSaIS1_EE13_M_deallocateEPS1_m
FN:174,_ZNSt12_Vector_baseINSt7__cxx1112basic_stringIcSt11char_traitsIcESaIcEEESaIS5_EE13_M_deallocateEPS5_m
FN:253,_ZNSt6vectorI8triangleSaIS0_EEC2Ev
FN:253,_ZNSt6vectorINSt7__cxx1112basic_stringIcSt11char_traitsIcESaIcEEESaIS5_EEC2Ev
FN:253,_ZNSt6vectorIP8StlShapeSaIS1_EEC2Ev
FN:253,_ZNSt6vectorIP14TransformationSaIS1_EEC2Ev
FN:423,_ZNSt6vectorIP8StlShapeSaIS1_EED2Ev
FN:423,_ZNSt6vectorINSt7__cxx1112basic_stringIcSt11char_traitsIcESaIcEEESaIS5_EED2Ev
FN:423,_ZNSt6vectorIP14TransformationSaIS1_EED2Ev
FN:423,_ZNSt6vectorI8triangleSaIS0_EED2Ev
FN:547,_ZNSt6vectorIP8StlShapeSaIS1_EE5beginEv
FN:547,_ZNSt6vectorI8triangleSaIS0_EE5beginEv
FN:547,_ZNSt6vectorINSt7__cxx1112basic_stringIcSt11char_traitsIcESaIcEEESaIS5_EE5beginEv
FN:547,_ZNSt6vectorIP14TransformationSaIS1_EE5beginEv
FN:565,_ZNSt6vectorIP14TransformationSaIS1_EE3endEv
FN:565,_ZNSt6vectorIP8StlShapeSaIS1_EE3endEv
FN:565,_ZNSt6vectorI8triangleSaIS0_EE3endEv
FN:565,_ZNSt6vectorINSt7__cxx1112basic_stringIcSt11char_traitsIcESaIcEEESaIS5_EE3endEv
FN:654,_ZNKSt6vectorIP8StlShapeSaIS1_EE4sizeEv
FN:654,_ZNKSt6vectorIP14TransformationSaIS1_EE4sizeEv
FN:654,_ZNKSt6vectorINSt7__cxx1112basic_stringIcSt11char_traitsIcESaIcEEESaIS5_EE4sizeEv
FN:654,_ZNKSt6vectorI8triangleSaIS0_EE4sizeEv
FN:659,_ZNKSt6vectorIP14TransformationSaIS1_EE8max_sizeEv
FN:659,_ZNKSt6vectorI8triangleSaIS0_EE8max_sizeEv
FN:659,_ZNKSt6vectorIP8StlShapeSaIS1_EE8max_sizeEv
FN:659,_ZNKSt6vectorINSt7__cxx1112basic_stringIcSt11char_traitsIcESaIcEEESaIS5_EE8max_sizeEv
FN:713,_ZNSt6vectorIP14TransformationSaIS1_EE6resizeEmS1_
FN:713,_ZNSt6vectorIP8StlShapeSaIS1_EE6resizeEmS1_
FN:779,_ZNSt6vectorI8triangleSaIS0_EEixEm
FN:779,_ZNSt6vectorINSt7__cxx1112basic_stringIcSt11char_traitsIcESaIcEEESaIS5_EEixEm
FN:779,_ZNSt6vectorIP8StlShapeSaIS1_EEixEm
FN:779,_ZNSt6vectorIP14TransformationSaIS1_EEixEm
FN:913,_ZNSt6vectorINSt7__cxx1112basic_stringIcSt11char_traitsIcESaIcEEESaIS5_EE9push_backERKS5_
FN:913,_ZNSt6vectorI8triangleSaIS0_EE9push_backERKS0_
FN:1072,_ZNSt6vectorIP8StlShapeSaIS1_EE6insertEN9__gnu_cxx17__normal_iteratorIPS1_S3_EEmRKS1_
FN:1072,_ZNSt6vectorIP14TransformationSaIS1_EE6insertEN9__gnu_cxx17__normal_iteratorIPS1_S3_EEmRKS1_
FN:1211,_ZNSt6vectorINSt7__cxx1112basic_stringIcSt11char_traitsIcESaIcEEESaIS5_EE5clearEv
FN:1422,_ZNKSt6vectorIP14TransformationSaIS1_EE12_M_check_lenEmPKc
FN:1422,_ZNKSt6vectorI8triangleSaIS0_EE12_M_check_lenEmPKc
FN:1422,_ZNKSt6vectorIP8StlShapeSaIS1_EE12_M_check_lenEmPKc
FN:1422,_ZNKSt6vectorINSt7__cxx1112basic_stringIcSt11char_traitsIcESaIcEEESaIS5_EE12_M_check_lenEmPKc
FN:1436,_ZNSt6vectorINSt7__cxx1112basic_stringIcSt11char_traitsIcESaIcEEESaIS5_EE15_M_erase_at_endEPS5_
FN:1436,_ZNSt6vectorIP8StlShapeSaIS1_EE15_M_erase_at_endEPS1_
FN:1436,_ZNSt6vectorIP14TransformationSaIS1_EE15_M_erase_at_endEPS1_
FNDA:2,_ZNSt12_Vector_baseINSt7__cxx1112basic_stringIcSt11char_traitsIcESaIcEEESaIS5_EE12_Vector_implD2Ev
FNDA:0,_ZNSt12_Vector_baseIP14TransformationSaIS1_EE12_Vector_implD2Ev
FNDA:0,_ZNSt12_Vector_baseIP8StlShapeSaIS1_EE12_Vector_implD2Ev
FNDA:0,_ZNSt12_Vector_baseI8triangleSaIS0_EE12_Vector_implD2Ev
FNDA:2,_ZNSt12_Vector_baseINSt7__cxx1112basic_stringIcSt11char_traitsIcESaIcEEESaIS5_EE12_Vector_implC2Ev
FNDA:1,_ZNSt12_Vector_baseIP14TransformationSaIS1_EE12_Vector_implC2Ev
FNDA:1,_ZNSt12_Vector_baseIP8StlShapeSaIS1_EE12_Vector_implC2Ev
FNDA:1,_ZNSt12_Vector_baseI8triangleSaIS0_EE12_Vector_implC2Ev
FNDA:30,_ZNSt12_Vector_baseINSt7__cxx1112basic_stringIcSt11char_traitsIcESaIcEEESaIS5_EE19_M_get_Tp_allocatorEv
FNDA:4,_ZNSt12_Vector_baseIP14TransformationSaIS1_EE19_M_get_Tp_allocatorEv
FNDA:4,_ZNSt12_Vector_baseIP8StlShapeSaIS1_EE19_M_get_Tp_allocatorEv
FNDA:15,_ZNSt12_Vector_baseI8triangleSaIS0_EE19_M_get_Tp_allocatorEv
FNDA:2,_ZNKSt12_Vector_baseIP14TransformationSaIS1_EE19_M_get_Tp_allocatorEv
FNDA:2,_ZNKSt12_Vector_baseIP8StlShapeSaIS1_EE19_M_get_Tp_allocatorEv
FNDA:10,_ZNKSt12_Vector_baseI8triangleSaIS0_EE19_M_get_Tp_allocatorEv
FNDA:16,_ZNKSt12_Vector_baseINSt7__cxx1112basic_stringIcSt11char_traitsIcESaIcEEESaIS5_EE19_M_get_Tp_allocatorEv
FNDA:2,_ZNSt12_Vector_baseINSt7__cxx1112basic_stringIcSt11char_traitsIcESaIcEEESaIS5_EEC2Ev
FNDA:1,_ZNSt12_Vector_baseIP14TransformationSaIS1_EEC2Ev
FNDA:1,_ZNSt12_Vector_baseIP8StlShapeSaIS1_EEC2Ev
FNDA:1,_ZNSt12_Vector_baseI8triangleSaIS0_EEC2Ev
FNDA:2,_ZNSt12_Vector_baseINSt7__cxx1112basic_stringIcSt11char_traitsIcESaIcEEESaIS5_EED2Ev
FNDA:0,_ZNSt12_Vector_baseIP14TransformationSaIS1_EED2Ev
FNDA:0,_ZNSt12_Vector_baseIP8StlShapeSaIS1_EED2Ev
FNDA:0,_ZNSt12_Vector_baseI8triangleSaIS0_EED2Ev
FNDA:1,_ZNSt12_Vector_baseIP14TransformationSaIS1_EE11_M_allocateEm
FNDA:1,_ZNSt12_Vector_baseIP8StlShapeSaIS1_EE11_M_allocateEm
FNDA:5,_ZNSt12_Vector_baseI8triangleSaIS0_EE11_M_allocateEm
FNDA:8,_ZNSt12_Vector_baseINSt7__cxx1112basic_stringIcSt11char_traitsIcESaIcEEESaIS5_EE11_M_allocateEm
FNDA:1,_ZNSt12_Vector_baseIP14TransformationSaIS1_EE13_M_deallocateEPS1_m
FNDA:1,_ZNSt12_Vector_baseIP8StlShapeSaIS1_EE13_M_deallocateEPS1_m
FNDA:5,_ZNSt12_Vector_baseI8triangleSaIS0_EE13_M_deallocateEPS0_m
FNDA:10,_ZNSt12_Vector_baseINSt7__cxx1112basic_stringIcSt11char_traitsIcESaIcEEESaIS5_EE13_M_deallocateEPS5_m
FNDA:2,_ZNSt6vectorINSt7__cxx1112basic_stringIcSt11char_traitsIcESaIcEEESaIS5_EEC2Ev
FNDA:1,_ZNSt6vectorIP14TransformationSaIS1_EEC2Ev
FNDA:1,_ZNSt6vectorIP8StlShapeSaIS1_EEC2Ev
FNDA:1,_ZNSt6vectorI8triangleSaIS0_EEC2Ev
FNDA:2,_ZNSt6vectorINSt7__cxx1112basic_stringIcSt11char_traitsIcESaIcEEESaIS5_EED2Ev
FNDA:0,_ZNSt6vectorIP14TransformationSaIS1_EED2Ev
FNDA:0,_ZNSt6vectorIP8StlShapeSaIS1_EED2Ev
FNDA:0,_ZNSt6vectorI8triangleSaIS0_EED2Ev
FNDA:1,_ZNSt6vectorIP14TransformationSaIS1_EE5beginEv
FNDA:1,_ZNSt6vectorIP8StlShapeSaIS1_EE5beginEv
FNDA:5,_ZNSt6vectorI8triangleSaIS0_EE5beginEv
FNDA:8,_ZNSt6vectorINSt7__cxx1112basic_stringIcSt11char_traitsIcESaIcEEESaIS5_EE5beginEv
FNDA:1,_ZNSt6vectorIP14TransformationSaIS1_EE3endEv
FNDA:1,_ZNSt6vectorIP8StlShapeSaIS1_EE3endEv
FNDA:5,_ZNSt6vectorI8triangleSaIS0_EE3endEv
FNDA:8,_ZNSt6vectorINSt7__cxx1112basic_stringIcSt11char_traitsIcESaIcEEESaIS5_EE3endEv
FNDA:6,_ZNKSt6vectorIP14TransformationSaIS1_EE4sizeEv
FNDA:6,_ZNKSt6vectorIP8StlShapeSaIS1_EE4sizeEv
FNDA:33,_ZNKSt6vectorINSt7__cxx1112basic_stringIcSt11char_traitsIcESaIcEEESaIS5_EE4sizeEv
FNDA:34,_ZNKSt6vectorI8triangleSaIS0_EE4sizeEv
FNDA:2,_ZNKSt6vectorIP14TransformationSaIS1_EE8max_sizeEv
FNDA:2,_ZNKSt6vectorIP8StlShapeSaIS1_EE8max_sizeEv
FNDA:10,_ZNKSt6vectorI8triangleSaIS0_EE8max_sizeEv
FNDA:16,_ZNKSt6vectorINSt7__cxx1112basic_stringIcSt11char_traitsIcESaIcEEESaIS5_EE8max_sizeEv
FNDA:1,_ZNSt6vectorIP14TransformationSaIS1_EE6resizeEmS1_
FNDA:1,_ZNSt6vectorIP8StlShapeSaIS1_EE6resizeEmS1_
FNDA:4,_ZNSt6vectorIP14TransformationSaIS1_EEixEm
FNDA:5,_ZNSt6vectorIP8StlShapeSaIS1_EEixEm
FNDA:28,_ZNSt6vectorINSt7__cxx1112basic_stringIcSt11char_traitsIcESaIcEEESaIS5_EEixEm
FNDA:216,_ZNSt6vectorI8triangleSaIS0_EEixEm
FNDA:12,_ZNSt6vectorI8triangleSaIS0_EE9push_backERKS0_
FNDA:35,_ZNSt6vectorINSt7__cxx1112basic_stringIcSt11char_traitsIcESaIcEEESaIS5_EE9push_backERKS5_
FNDA:1,_ZNSt6vectorIP14TransformationSaIS1_EE6insertEN9__gnu_cxx17__normal_iteratorIPS1_S3_EEmRKS1_
FNDA:1,_ZNSt6vectorIP8StlShapeSaIS1_EE6insertEN9__gnu_cxx17__normal_iteratorIPS1_S3_EEmRKS1_
FNDA:4,_ZNSt6vectorINSt7__cxx1112basic_stringIcSt11char_traitsIcESaIcEEESaIS5_EE5clearEv
FNDA:1,_ZNKSt6vectorIP14TransformationSaIS1_EE12_M_check_lenEmPKc
FNDA:1,_ZNKSt6vectorIP8StlShapeSaIS1_EE12_M_check_lenEmPKc
FNDA:5,_ZNKSt6vectorI8triangleSaIS0_EE12_M_check_lenEmPKc
FNDA:8,_ZNKSt6vectorINSt7__cxx1112basic_stringIcSt11char_traitsIcESaIcEEESaIS5_EE12_M_check_lenEmPKc
FNDA:0,_ZNSt6vectorIP14TransformationSaIS1_EE15_M_erase_at_endEPS1_
FNDA:0,_ZNSt6vectorIP8StlShapeSaIS1_EE15_M_erase_at_endEPS1_
FNDA:4,_ZNSt6vectorINSt7__cxx1112basic_stringIcSt11char_traitsIcESaIcEEESaIS5_EE15_M_erase_at_endEPS5_
FNF:74
FNH:63
DA:79,2
DA:86,5
DA:87,5
DA:88,5
DA:113,53
DA:114,53
DA:117,30
DA:118,30
DA:124,5
DA:125,5
DA:159,2
DA:160,4
DA:161,6
DA:167,15
DA:170,15
DA:174,17
DA:177,17
DA:178,12
DA:179,17
DA:253,5
DA:257,5
DA:423,2
DA:424,2
DA:425,4
DA:547,15
DA:548,15
DA:565,15
DA:566,15
DA:654,79
DA:655,79
DA:659,30
DA:660,30
DA:713,2
DA:715,2
DA:716,2
DA:717,0
DA:718,0
DA:719,2
DA:779,253
DA:780,253
DA:913,47
DA:915,47
DA:917,34
DA:919,34
DA:925,13
DA:927,47
DA:1072,2
DA:1073,2
DA:1211,4
DA:1212,4
DA:1422,15
DA:1424,15
DA:1425,0
DA:1427,15
DA:1428,15
DA:1436,4
DA:1438,4
DA:1439,4
DA:1440,4
LF:59
LH:56
end_of_record
SF:/usr/include/c++/5/bits/vector.tcc
FN:326,_ZNSt6vectorI8triangleSaIS0_EE13_M_insert_auxEN9__gnu_cxx17__normal_iteratorIPS0_S2_EERKS0_
FN:326,_ZNSt6vectorINSt7__cxx1112basic_stringIcSt11char_traitsIcESaIcEEESaIS5_EE13_M_insert_auxEN9__gnu_cxx17__normal_iteratorIPS5_S7_EERKS5_
FN:449,_ZNSt6vectorIP8StlShapeSaIS1_EE14_M_fill_insertEN9__gnu_cxx17__normal_iteratorIPS1_S3_EEmRKS1_
FN:449,_ZNSt6vectorIP14TransformationSaIS1_EE14_M_fill_insertEN9__gnu_cxx17__normal_iteratorIPS1_S3_EEmRKS1_
FNDA:5,_ZNSt6vectorI8triangleSaIS0_EE13_M_insert_auxEN9__gnu_cxx17__normal_iteratorIPS0_S2_EERKS0_
FNDA:8,_ZNSt6vectorINSt7__cxx1112basic_stringIcSt11char_traitsIcESaIcEEESaIS5_EE13_M_insert_auxEN9__gnu_cxx17__normal_iteratorIPS5_S7_EERKS5_
FNDA:1,_ZNSt6vectorIP14TransformationSaIS1_EE14_M_fill_insertEN9__gnu_cxx17__normal_iteratorIPS1_S3_EEmRKS1_
FNDA:1,_ZNSt6vectorIP8StlShapeSaIS1_EE14_M_fill_insertEN9__gnu_cxx17__normal_iteratorIPS1_S3_EEmRKS1_
FNF:4
FNH:4
DA:326,13
DA:330,13
DA:332,0
DA:333,0
DA:335,0
DA:337,0
DA:339,0
DA:343,0
DA:351,13
DA:352,13
DA:353,13
DA:354,13
DA:361,13
DA:368,13
DA:370,13
DA:372,13
DA:373,13
DA:375,13
DA:377,13
DA:379,13
DA:380,13
DA:382,0
DA:384,0
DA:385,0
DA:388,0
DA:389,0
DA:390,0
DA:392,13
DA:393,13
DA:394,26
DA:396,26
DA:397,13
DA:398,13
DA:399,13
DA:401,13
DA:449,2
DA:452,2
DA:454,4
DA:455,4
DA:457,0
DA:458,0
DA:459,0
DA:460,0
DA:462,0
DA:465,0
DA:466,0
DA:467,0
DA:469,0
DA:474,0
DA:475,0
DA:478,0
DA:479,0
DA:481,0
DA:482,0
DA:483,0
DA:489,2
DA:490,2
DA:491,2
DA:492,2
DA:496,2
DA:498,2
DA:499,2
DA:501,2
DA:503,2
DA:504,2
DA:506,2
DA:508,2
DA:510,2
DA:511,2
DA:513,0
DA:515,0
DA:516,0
DA:517,0
DA:518,0
DA:520,0
DA:521,0
DA:522,0
DA:523,0
DA:525,2
DA:526,2
DA:527,4
DA:529,4
DA:530,2
DA:531,2
DA:532,2
DA:535,2
LF:86
LH:49
end_of_record
SF:/usr/include/c++/5/ext/alloc_traits.h
FN:181,_ZN9__gnu_cxx14__alloc_traitsISaIP8StlShapeEE8allocateERS3_m
FN:181,_ZN9__gnu_cxx14__alloc_traitsISaINSt7__cxx1112basic_stringIcSt11char_traitsIcESaIcEEEEE8allocateERS7_m
FN:181,_ZN9__gnu_cxx14__alloc_traitsISaIP14TransformationEE8allocateERS3_m
FN:181,_ZN9__gnu_cxx14__alloc_traitsISaI8triangleEE8allocateERS2_m
FN:184,_ZN9__gnu_cxx14__alloc_traitsISaINSt7__cxx1112basic_stringIcSt11char_traitsIcESaIcEEEEE10deallocateERS7_PS6_m
FN:184,_ZN9__gnu_cxx14__alloc_traitsISaI8triangleEE10deallocateERS2_PS1_m
FN:184,_ZN9__gnu_cxx14__alloc_traitsISaIP14TransformationEE10deallocateERS3_PS2_m
FN:184,_ZN9__gnu_cxx14__alloc_traitsISaIP8StlShapeEE10deallocateERS3_PS2_m
FN:188,_ZN9__gnu_cxx14__alloc_traitsISaI8triangleEE9constructIS1_EEvRS2_PS1_RKT_
FN:188,_ZN9__gnu_cxx14__alloc_traitsISaINSt7__cxx1112basic_stringIcSt11char_traitsIcESaIcEEEEE9constructIS6_EEvRS7_PS6_RKT_
FN:191,_ZN9__gnu_cxx14__alloc_traitsISaINSt7__cxx1112basic_stringIcSt11char_traitsIcESaIcEEEEE7destroyERS7_PS6_
FN:191,_ZN9__gnu_cxx14__alloc_traitsISaI8triangleEE7destroyERS2_PS1_
FN:194,_ZN9__gnu_cxx14__alloc_traitsISaIP14TransformationEE8max_sizeERKS3_
FN:194,_ZN9__gnu_cxx14__alloc_traitsISaI8triangleEE8max_sizeERKS2_
FN:194,_ZN9__gnu_cxx14__alloc_traitsISaINSt7__cxx1112basic_stringIcSt11char_traitsIcESaIcEEEEE8max_sizeERKS7_
FN:194,_ZN9__gnu_cxx14__alloc_traitsISaIP8StlShapeEE8max_sizeERKS3_
FNDA:1,_ZN9__gnu_cxx14__alloc_traitsISaIP14TransformationEE8allocateERS3_m
FNDA:1,_ZN9__gnu_cxx14__alloc_traitsISaIP8StlShapeEE8allocateERS3_m
FNDA:5,_ZN9__gnu_cxx14__alloc_traitsISaI8triangleEE8allocateERS2_m
FNDA:8,_ZN9__gnu_cxx14__alloc_traitsISaINSt7__cxx1112basic_stringIcSt11char_traitsIcESaIcEEEEE8allocateERS7_m
FNDA:0,_ZN9__gnu_cxx14__alloc_traitsISaIP14TransformationEE10deallocateERS3_PS2_m
FNDA:0,_ZN9__gnu_cxx14__alloc_traitsISaIP8StlShapeEE10deallocateERS3_PS2_m
FNDA:4,_ZN9__gnu_cxx14__alloc_traitsISaI8triangleEE10deallocateERS2_PS1_m
FNDA:8,_ZN9__gnu_cxx14__alloc_traitsISaINSt7__cxx1112basic_stringIcSt11char_traitsIcESaIcEEEEE10deallocateERS7_PS6_m
FNDA:12,_ZN9__gnu_cxx14__alloc_traitsISaI8triangleEE9constructIS1_EEvRS2_PS1_RKT_
FNDA:35,_ZN9__gnu_cxx14__alloc_traitsISaINSt7__cxx1112basic_stringIcSt11char_traitsIcESaIcEEEEE9constructIS6_EEvRS7_PS6_RKT_
FNDA:0,_ZN9__gnu_cxx14__alloc_traitsISaI8triangleEE7destroyERS2_PS1_
FNDA:0,_ZN9__gnu_cxx14__alloc_traitsISaINSt7__cxx1112basic_stringIcSt11char_traitsIcESaIcEEEEE7destroyERS7_PS6_
FNDA:2,_ZN9__gnu_cxx14__alloc_traitsISaIP14TransformationEE8max_sizeERKS3_
FNDA:2,_ZN9__gnu_cxx14__alloc_traitsISaIP8StlShapeEE8max_sizeERKS3_
FNDA:10,_ZN9__gnu_cxx14__alloc_traitsISaI8triangleEE8max_sizeERKS2_
FNDA:16,_ZN9__gnu_cxx14__alloc_traitsISaINSt7__cxx1112basic_stringIcSt11char_traitsIcESaIcEEEEE8max_sizeERKS7_
FNF:16
FNH:12
DA:181,15
DA:182,15
DA:184,12
DA:185,12
DA:188,47
DA:189,47
DA:191,0
DA:192,0
DA:194,30
DA:195,30
LF:10
LH:8
end_of_record
SF:/usr/include/c++/5/ext/new_allocator.h
FN:79,_ZN9__gnu_cxx13new_allocatorI8triangleEC2Ev
FN:79,_ZN9__gnu_cxx13new_allocatorINSt7__cxx1112basic_stringIcSt11char_traitsIcESaIcEEEEC2Ev
FN:79,_ZN9__gnu_cxx13new_allocatorIP14TransformationEC2Ev
FN:79,_ZN9__gnu_cxx13new_allocatorIP8StlShapeEC2Ev
FN:86,_ZN9__gnu_cxx13new_allocatorI8triangleED2Ev
FN:86,_ZN9__gnu_cxx13new_allocatorINSt7__cxx1112basic_stringIcSt11char_traitsIcESaIcEEEED2Ev
FN:86,_ZN9__gnu_cxx13new_allocatorIP8StlShapeED2Ev
FN:86,_ZN9__gnu_cxx13new_allocatorIP14TransformationED2Ev
FN:99,_ZN9__gnu_cxx13new_allocatorI8triangleE8allocateEmPKv
FN:99,_ZN9__gnu_cxx13new_allocatorIP14TransformationE8allocateEmPKv
FN:99,_ZN9__gnu_cxx13new_allocatorIP8StlShapeE8allocateEmPKv
FN:99,_ZN9__gnu_cxx13new_allocatorINSt7__cxx1112basic_stringIcSt11char_traitsIcESaIcEEEE8allocateEmPKv
FN:109,_ZN9__gnu_cxx13new_allocatorIP8StlShapeE10deallocateEPS2_m
FN:109,_ZN9__gnu_cxx13new_allocatorI8triangleE10deallocateEPS1_m
FN:109,_ZN9__gnu_cxx13new_allocatorIP14TransformationE10deallocateEPS2_m
FN:109,_ZN9__gnu_cxx13new_allocatorINSt7__cxx1112basic_stringIcSt11char_traitsIcESaIcEEEE10deallocateEPS6_m
FN:113,_ZNK9__gnu_cxx13new_allocatorI8triangleE8max_sizeEv
FN:113,_ZNK9__gnu_cxx13new_allocatorIP8StlShapeE8max_sizeEv
FN:113,_ZNK9__gnu_cxx13new_allocatorIP14TransformationE8max_sizeEv
FN:113,_ZNK9__gnu_cxx13new_allocatorINSt7__cxx1112basic_stringIcSt11char_traitsIcESaIcEEEE8max_sizeEv
FN:129,_ZN9__gnu_cxx13new_allocatorINSt7__cxx1112basic_stringIcSt11char_traitsIcESaIcEEEE9constructEPS6_RKS6_
FN:129,_ZN9__gnu_cxx13new_allocatorI8triangleE9constructEPS1_RKS1_
FN:133,_ZN9__gnu_cxx13new_allocatorINSt7__cxx1112basic_stringIcSt11char_traitsIcESaIcEEEE7destroyEPS6_
FN:133,_ZN9__gnu_cxx13new_allocatorI8triangleE7destroyEPS1_
FNDA:2,_ZN9__gnu_cxx13new_allocatorINSt7__cxx1112basic_stringIcSt11char_traitsIcESaIcEEEEC2Ev
FNDA:1,_ZN9__gnu_cxx13new_allocatorIP14TransformationEC2Ev
FNDA:1,_ZN9__gnu_cxx13new_allocatorIP8StlShapeEC2Ev
FNDA:1,_ZN9__gnu_cxx13new_allocatorI8triangleEC2Ev
FNDA:2,_ZN9__gnu_cxx13new_allocatorINSt7__cxx1112basic_stringIcSt11char_traitsIcESaIcEEEED2Ev
FNDA:0,_ZN9__gnu_cxx13new_allocatorIP14TransformationED2Ev
FNDA:0,_ZN9__gnu_cxx13new_allocatorIP8StlShapeED2Ev
FNDA:0,_ZN9__gnu_cxx13new_allocatorI8triangleED2Ev
FNDA:1,_ZN9__gnu_cxx13new_allocatorIP14TransformationE8allocateEmPKv
FNDA:1,_ZN9__gnu_cxx13new_allocatorIP8StlShapeE8allocateEmPKv
FNDA:5,_ZN9__gnu_cxx13new_allocatorI8triangleE8allocateEmPKv
FNDA:8,_ZN9__gnu_cxx13new_allocatorINSt7__cxx1112basic_stringIcSt11char_traitsIcESaIcEEEE8allocateEmPKv
FNDA:0,_ZN9__gnu_cxx13new_allocatorIP14TransformationE10deallocateEPS2_m
FNDA:0,_ZN9__gnu_cxx13new_allocatorIP8StlShapeE10deallocateEPS2_m
FNDA:4,_ZN9__gnu_cxx13new_allocatorI8triangleE10deallocateEPS1_m
FNDA:8,_ZN9__gnu_cxx13new_allocatorINSt7__cxx1112basic_stringIcSt11char_traitsIcESaIcEEEE10deallocateEPS6_m
FNDA:3,_ZNK9__gnu_cxx13new_allocatorIP14TransformationE8max_sizeEv
FNDA:3,_ZNK9__gnu_cxx13new_allocatorIP8StlShapeE8max_sizeEv
FNDA:15,_ZNK9__gnu_cxx13new_allocatorI8triangleE8max_sizeEv
FNDA:24,_ZNK9__gnu_cxx13new_allocatorINSt7__cxx1112basic_stringIcSt11char_traitsIcESaIcEEEE8max_sizeEv
FNDA:12,_ZN9__gnu_cxx13new_allocatorI8triangleE9constructEPS1_RKS1_
FNDA:35,_ZN9__gnu_cxx13new_allocatorINSt7__cxx1112basic_stringIcSt11char_traitsIcESaIcEEEE9constructEPS6_RKS6_
FNDA:0,_ZN9__gnu_cxx13new_allocatorI8triangleE7destroyEPS1_
FNDA:0,_ZN9__gnu_cxx13new_allocatorINSt7__cxx1112basic_stringIcSt11char_traitsIcESaIcEEEE7destroyEPS6_
FNF:24
FNH:17
DA:79,5
DA:86,2
DA:99,15
DA:101,15
DA:102,0
DA:104,15
DA:109,12
DA:110,12
DA:113,45
DA:114,45
DA:129,47
DA:130,47
DA:133,0
LF:13
LH:11
end_of_record
SF:/usr/include/c++/5/iostream
DA:74,1
LF:1
LH:1
end_of_record
SF:/usr/include/c++/5/new
FN:129,_ZnwmPv
FN:135,_ZdlPvS_
FNDA:65,_ZnwmPv
FNDA:0,_ZdlPvS_
FNF:2
FNH:1
DA:129,65
DA:130,65
DA:135,0
LF:3
LH:2
end_of_record
SF:/data/tzwang/graphics/ReduceGL/Draw04/Camera.h
FN:7,_ZN6CameraD0Ev
FN:7,_ZN6CameraD2Ev
FN:31,_ZN6CameraC2E4Enum
FN:52,_ZN6Camera9SetValuevE4EnumPf
FN:80,_ZN6Camera8SetValueE4Enumfff
FN:88,_ZN6Camera8SetValueE4Enumf
FN:123,_ZN6Camera6RenderEv
FNDA:0,_ZN6CameraD0Ev
FNDA:0,_ZN6CameraD2Ev
FNDA:1,_ZN6CameraC2E4Enum
FNDA:3,_ZN6Camera9SetValuevE4EnumPf
FNDA:3,_ZN6Camera8SetValueE4Enumfff
FNDA:4,_ZN6Camera8SetValueE4Enumf
FNDA:1,_ZN6Camera6RenderEv
FNF:7
FNH:5
DA:7,0
DA:31,1
DA:35,1
DA:36,1
DA:38,4
DA:40,3
DA:41,2
DA:42,3
DA:43,3
DA:44,3
DA:46,1
DA:47,1
DA:49,1
DA:52,3
DA:54,3
DA:57,3
DA:60,1
DA:61,1
DA:62,1
DA:64,1
DA:65,1
DA:66,1
DA:68,1
DA:69,1
DA:70,1
DA:72,0
DA:75,12
DA:76,9
DA:77,3
DA:80,3
DA:82,3
DA:84,3
DA:85,3
DA:88,4
DA:90,4
DA:93,1
DA:94,1
DA:95,1
DA:97,1
DA:98,1
DA:99,1
DA:101,1
DA:102,1
DA:103,1
DA:105,0
DA:107,0
DA:108,0
DA:110,0
DA:112,1
DA:114,1
DA:115,1
DA:117,1
DA:119,0
DA:121,4
DA:123,1
DA:125,1
DA:126,1
DA:127,1
DA:128,1
DA:129,1
DA:131,1
DA:133,1
DA:134,1
DA:138,1
DA:139,1
DA:141,1
DA:143,1
DA:144,5
DA:145,4
DA:146,2
DA:148,1
LF:71
LH:64
end_of_record
SF:/data/tzwang/graphics/ReduceGL/Draw04/Color.h
FN:8,_ZN5ColorD2Ev
FN:8,_ZN5ColorD0Ev
FN:53,_ZN5Color6RenderEv
FNDA:0,_ZN5ColorD0Ev
FNDA:0,_ZN5ColorD2Ev
FNDA:0,_ZN5Color6RenderEv
FNF:3
FNH:0
DA:8,0
DA:53,0
DA:54,0
DA:55,0
DA:56,0
DA:57,0
LF:6
LH:0
end_of_record
SF:/data/tzwang/graphics/ReduceGL/Draw04/DrawStyle.h
FN:7,_ZN9DrawStyleD0Ev
FN:7,_ZN9DrawStyleD2Ev
FN:68,_ZN9DrawStyle6RenderEv
FNDA:0,_ZN9DrawStyleD0Ev
FNDA:0,_ZN9DrawStyleD2Ev
FNDA:0,_ZN9DrawStyle6RenderEv
FNF:3
FNH:0
DA:7,0
DA:68,0
DA:70,0
DA:71,0
DA:73,0
DA:75,0
DA:78,0
DA:79,0
DA:81,0
DA:82,0
DA:84,0
DA:85,0
DA:87,0
DA:89,0
DA:95,0
LF:15
LH:0
end_of_record
SF:/data/tzwang/graphics/ReduceGL/Draw04/GLViewer.h
FN:40,_ZN8GLViewerC2Ev
FN:54,_ZN8GLViewerD2Ev
FN:64,_ZN8GLViewer4InitEiPPc
FN:71,_ZN8GLViewer9CreateWinEPcii
FN:79,_ZN8GLViewer8SetValueE4EnumS0_
FN:98,_ZN8GLViewer4ShowEP4Node
FN:108,_ZN8GLViewer6GLInitEv
FN:136,_ZN8GLViewer8Display0Ev
FN:147,_ZN8GLViewer8Reshape0Eii
FN:155,_ZN8GLViewer8Display1Ev
FN:165,_ZN8GLViewer8Reshape1Eii
FN:173,_ZN8GLViewer8Display2Ev
FN:183,_ZN8GLViewer8Reshape2Eii
FNDA:1,_ZN8GLViewerC2Ev
FNDA:0,_ZN8GLViewerD2Ev
FNDA:1,_ZN8GLViewer4InitEiPPc
FNDA:1,_ZN8GLViewer9CreateWinEPcii
FNDA:2,_ZN8GLViewer8SetValueE4EnumS0_
FNDA:1,_ZN8GLViewer4ShowEP4Node
FNDA:1,_ZN8GLViewer6GLInitEv
FNDA:1,_ZN8GLViewer8Display0Ev
FNDA:0,_ZN8GLViewer8Reshape0Eii
FNDA:0,_ZN8GLViewer8Display1Ev
FNDA:0,_ZN8GLViewer8Reshape1Eii
FNDA:0,_ZN8GLViewer8Display2Ev
FNDA:0,_ZN8GLViewer8Reshape2Eii
FNF:13
FNH:7
DA:40,1
DA:44,1
DA:45,1
DA:47,1
DA:48,1
DA:49,1
DA:50,4
DA:51,3
DA:52,1
DA:54,0
DA:56,0
DA:58,0
DA:59,0
DA:61,0
DA:64,1
DA:68,1
DA:71,1
DA:73,1
DA:74,1
DA:75,1
DA:76,1
DA:79,2
DA:81,2
DA:84,1
DA:85,1
DA:86,0
DA:87,0
DA:88,1
DA:90,1
DA:91,1
DA:93,0
DA:95,2
DA:98,1
DA:100,1
DA:101,1
DA:104,1
DA:108,1
DA:131,1
DA:132,1
DA:133,1
DA:136,1
DA:137,1
DA:138,1
DA:139,1
DA:142,1
DA:143,1
DA:147,0
DA:149,0
DA:150,0
DA:151,0
DA:152,0
DA:155,0
DA:156,0
DA:157,0
DA:158,0
DA:161,0
DA:162,0
DA:165,0
DA:167,0
DA:168,0
DA:169,0
DA:170,0
DA:173,0
DA:174,0
DA:175,0
DA:176,0
DA:179,0
DA:180,0
DA:183,0
DA:185,0
DA:186,0
DA:187,0
DA:188,0
LF:73
LH:38
end_of_record
SF:/data/tzwang/graphics/ReduceGL/Draw04/Geometry.h
FN:45,_ZN8GeometryC2Ev
FN:53,_ZN8GeometryD2Ev
FN:53,_ZN8GeometryD0Ev
FN:140,_ZN8Geometry11SetMaterialEP8Material
FN:178,_ZN8Geometry12SetTransformEP14Transformation
FN:215,_ZN8Geometry6RenderEv
FN:220,_ZN4LineD2Ev
FN:220,_ZN4LineD0Ev
FN:251,_ZN4Line6RenderEv
FN:275,_ZN4CubeD0Ev
FN:275,_ZN4CubeD2Ev
FN:293,_ZN4CubeC2Efff
FN:322,_ZN4Cube7PolygonEPh
FN:346,_ZN4Cube6RenderEv
FN:390,_ZN8CylinderD0Ev
FN:390,_ZN8CylinderD2Ev
FN:420,_ZN8Cylinder6RenderEv
FN:445,_ZN6SphereD0Ev
FN:445,_ZN6SphereD2Ev
FN:470,_ZN6Sphere6RenderEv
FN:490,_ZN7PolygonD0Ev
FN:490,_ZN7PolygonD2Ev
FN:493,_ZN7PolygonC2Ev
FN:503,_ZN7Polygon12SetVerticesvEPA3_fi
FN:514,_ZN7Polygon6RenderEv
FN:548,_Z11GetColorMatddd
FN:602,_ZN8StlShapeD0Ev
FN:602,_ZN8StlShapeD2Ev
FN:605,_ZN8StlShapeC2Ev
FN:615,_ZN8StlShape7LoadStlEPc
FN:640,_ZN8StlShape6RenderEv
FN:700,_ZN14TextureSurfaceD2Ev
FN:700,_ZN14TextureSurfaceD0Ev
FN:703,_ZN14TextureSurfaceC2Ev
FN:727,_ZN14TextureSurface6RenderEv
FNDA:5,_ZN8GeometryC2Ev
FNDA:0,_ZN8GeometryD0Ev
FNDA:0,_ZN8GeometryD2Ev
FNDA:4,_ZN8Geometry11SetMaterialEP8Material
FNDA:1,_ZN8Geometry12SetTransformEP14Transformation
FNDA:0,_ZN8Geometry6RenderEv
FNDA:0,_ZN4LineD0Ev
FNDA:0,_ZN4LineD2Ev
FNDA:0,_ZN4Line6RenderEv
FNDA:0,_ZN4CubeD0Ev
FNDA:0,_ZN4CubeD2Ev
FNDA:0,_ZN4CubeC2Efff
FNDA:0,_ZN4Cube7PolygonEPh
FNDA:0,_ZN4Cube6RenderEv
FNDA:0,_ZN8CylinderD0Ev
FNDA:0,_ZN8CylinderD2Ev
FNDA:0,_ZN8Cylinder6RenderEv
FNDA:0,_ZN6SphereD0Ev
FNDA:0,_ZN6SphereD2Ev
FNDA:0,_ZN6Sphere6RenderEv
FNDA:0,_ZN7PolygonD0Ev
FNDA:0,_ZN7PolygonD2Ev
FNDA:3,_ZN7PolygonC2Ev
FNDA:3,_ZN7Polygon12SetVerticesvEPA3_fi
FNDA:0,_ZN7Polygon6RenderEv
FNDA:4,_Z11GetColorMatddd
FNDA:0,_ZN8StlShapeD0Ev
FNDA:0,_ZN8StlShapeD2Ev
FNDA:1,_ZN8StlShapeC2Ev
FNDA:1,_ZN8StlShape7LoadStlEPc
FNDA:1,_ZN8StlShape6RenderEv
FNDA:0,_ZN14TextureSurfaceD0Ev
FNDA:0,_ZN14TextureSurfaceD2Ev
FNDA:1,_ZN14TextureSurfaceC2Ev
FNDA:0,_ZN14TextureSurface6RenderEv
FNF:35
FNH:10
DA:45,5
DA:47,5
DA:48,5
DA:49,5
DA:50,5
DA:51,5
DA:53,0
DA:55,0
DA:57,0
DA:58,0
DA:60,0
DA:62,0
DA:63,0
DA:65,0
DA:67,0
DA:68,0
DA:70,0
DA:72,0
DA:73,0
DA:75,0
DA:140,4
DA:142,4
DA:143,0
DA:144,4
DA:145,4
DA:146,4
DA:178,1
DA:180,1
DA:181,0
DA:183,1
DA:184,1
DA:185,1
DA:215,0
DA:217,0
DA:218,0
DA:220,0
DA:251,0
DA:253,0
DA:256,0
DA:257,0
DA:258,0
DA:259,0
DA:260,0
DA:261,0
DA:262,0
DA:263,0
DA:265,0
DA:266,0
DA:267,0
DA:268,0
DA:272,0
DA:275,0
DA:293,0
DA:296,0
DA:297,0
DA:298,0
DA:299,0
DA:322,0
DA:325,0
DA:326,0
DA:327,0
DA:328,0
DA:329,0
DA:330,0
DA:334,0
DA:336,0
DA:337,0
DA:338,0
DA:339,0
DA:340,0
DA:341,0
DA:343,0
DA:346,0
DA:348,0
DA:352,0
DA:353,0
DA:354,0
DA:355,0
DA:356,0
DA:357,0
DA:358,0
DA:359,0
DA:362,0
DA:365,0
DA:369,0
DA:371,0
DA:373,0
DA:374,0
DA:386,0
DA:390,0
DA:420,0
DA:422,0
DA:425,0
DA:426,0
DA:427,0
DA:428,0
DA:429,0
DA:430,0
DA:431,0
DA:432,0
DA:439,0
DA:445,0
DA:470,0
DA:472,0
DA:475,0
DA:476,0
DA:477,0
DA:478,0
DA:479,0
DA:480,0
DA:481,0
DA:482,0
DA:484,0
DA:488,0
DA:490,0
DA:493,3
DA:503,3
DA:506,3
DA:508,15
DA:509,48
DA:510,36
DA:511,3
DA:514,0
DA:517,0
DA:520,0
DA:521,0
DA:522,0
DA:523,0
DA:524,0
DA:525,0
DA:526,0
DA:527,0
DA:529,0
DA:530,0
DA:531,0
DA:532,0
DA:533,0
DA:537,0
DA:548,4
DA:552,4
DA:553,0
DA:554,4
DA:555,0
DA:557,4
DA:558,2
DA:559,2
DA:560,2
DA:561,2
DA:562,1
DA:563,1
DA:564,1
DA:566,1
DA:567,1
DA:568,1
DA:570,4
DA:571,4
DA:572,4
DA:574,4
DA:575,4
DA:576,4
DA:578,4
DA:580,4
DA:581,4
DA:582,4
DA:583,4
DA:584,4
DA:602,0
DA:605,1
DA:615,1
DA:621,1
DA:622,1
DA:625,1
DA:626,1
DA:640,1
DA:643,1
DA:646,1
DA:647,0
DA:648,1
DA:649,1
DA:650,1
DA:651,1
DA:652,1
DA:653,0
DA:655,1
DA:668,1
DA:669,13
DA:672,48
DA:675,36
DA:677,72
DA:678,36
DA:679,72
DA:688,1
DA:696,1
DA:700,0
DA:703,1
DA:727,0
DA:730,0
DA:732,0
DA:734,0
DA:735,0
DA:736,0
DA:737,0
DA:738,0
DA:739,0
DA:740,0
DA:741,0
DA:744,0
DA:748,0
DA:749,0
DA:751,0
DA:752,0
DA:756,0
DA:757,0
DA:761,0
DA:764,0
DA:765,0
DA:766,0
DA:767,0
DA:771,0
DA:773,0
DA:775,0
DA:780,0
LF:222
LH:74
end_of_record
SF:/data/tzwang/graphics/ReduceGL/Draw04/Light.h
FN:7,_ZN5LightD0Ev
FN:7,_ZN5LightD2Ev
FN:37,_ZN5LightC2Ev
FN:79,_ZN5Light6TurnOnEv
FN:91,_ZN5Light9SetValuevE4EnumPf
FN:129,_ZN5Light8SetValueE4Enumffff
FN:136,_ZN5Light8SetValueE4Enumfff
FN:143,_ZN5Light8SetValueE4Enumf
FN:161,_ZN5Light6RenderEv
FNDA:0,_ZN5LightD0Ev
FNDA:0,_ZN5LightD2Ev
FNDA:1,_ZN5LightC2Ev
FNDA:1,_ZN5Light6TurnOnEv
FNDA:2,_ZN5Light9SetValuevE4EnumPf
FNDA:1,_ZN5Light8SetValueE4Enumffff
FNDA:1,_ZN5Light8SetValueE4Enumfff
FNDA:1,_ZN5Light8SetValueE4Enumf
FNDA:1,_ZN5Light6RenderEv
FNF:9
FNH:7
DA:7,0
DA:37,1
DA:41,8
DA:42,7
DA:44,1
DA:46,1
DA:49,1
DA:50,1
DA:52,0
DA:53,0
DA:55,0
DA:56,0
DA:58,0
DA:59,0
DA:61,0
DA:62,0
DA:64,0
DA:65,0
DA:67,0
DA:68,0
DA:70,0
DA:71,0
DA:73,0
DA:75,1
DA:76,1
DA:79,1
DA:81,1
DA:82,1
DA:91,2
DA:94,2
DA:96,2
DA:99,0
DA:100,0
DA:101,0
DA:103,0
DA:104,0
DA:105,0
DA:107,0
DA:108,0
DA:109,0
DA:111,1
DA:112,1
DA:113,1
DA:115,1
DA:116,1
DA:117,1
DA:119,0
DA:121,8
DA:122,6
DA:124,2
DA:125,1
DA:126,2
DA:129,1
DA:131,1
DA:132,1
DA:133,1
DA:136,1
DA:138,1
DA:139,1
DA:140,1
DA:143,1
DA:145,1
DA:148,0
DA:149,0
DA:150,0
DA:152,1
DA:153,1
DA:154,1
DA:156,0
DA:158,1
DA:161,1
DA:163,1
DA:164,1
DA:166,1
DA:167,1
DA:171,0
DA:172,0
DA:175,1
DA:176,0
DA:177,1
DA:178,0
DA:179,1
DA:180,0
DA:181,1
DA:182,1
DA:183,1
DA:184,1
DA:185,1
DA:186,1
DA:187,1
LF:90
LH:55
end_of_record
SF:/data/tzwang/graphics/ReduceGL/Draw04/LightOff.h
FN:7,_ZN7TurnOffD2Ev
FN:7,_ZN7TurnOffD0Ev
FN:24,_ZN7TurnOff6RenderEv
FNDA:0,_ZN7TurnOffD0Ev
FNDA:0,_ZN7TurnOffD2Ev
FNDA:0,_ZN7TurnOff6RenderEv
FNF:3
FNH:0
DA:7,0
DA:24,0
DA:26,0
DA:27,0
DA:28,0
LF:5
LH:0
end_of_record
SF:/data/tzwang/graphics/ReduceGL/Draw04/Material.h
FN:7,_ZN8MaterialD0Ev
FN:7,_ZN8MaterialD2Ev
FN:26,_ZN8MaterialC2Ev
FN:37,_ZN8Material9SetValuevE4EnumPf
FN:69,_ZN8Material8SetValueE4Enumffff
FN:77,_ZN8Material8SetValueE4Enumf
FN:87,_ZN8Material6RenderEv
FNDA:0,_ZN8MaterialD0Ev
FNDA:0,_ZN8MaterialD2Ev
FNDA:4,_ZN8MaterialC2Ev
FNDA:12,_ZN8Material9SetValuevE4EnumPf
FNDA:12,_ZN8Material8SetValueE4Enumffff
FNDA:4,_ZN8Material8SetValueE4Enumf
FNDA:1,_ZN8Material6RenderEv
FNF:7
FNH:5
DA:7,0
DA:26,4
DA:30,24
DA:32,20
DA:34,4
DA:37,12
DA:39,12
DA:42,12
DA:45,4
DA:46,4
DA:47,4
DA:49,4
DA:50,4
DA:51,4
DA:53,4
DA:54,4
DA:55,4
DA:57,0
DA:58,0
DA:59,0
DA:61,0
DA:64,60
DA:65,48
DA:66,12
DA:69,12
DA:71,12
DA:73,12
DA:74,12
DA:77,4
DA:79,4
DA:81,4
DA:82,4
DA:84,4
DA:87,1
DA:88,1
DA:89,1
DA:90,1
DA:91,1
DA:92,1
DA:93,1
DA:94,1
DA:95,1
DA:96,0
DA:97,1
DA:98,1
DA:99,1
LF:46
LH:40
end_of_record
SF:/data/tzwang/graphics/ReduceGL/Draw04/Model3dRender.cpp
FN:6,_Z4trimRKNSt7__cxx1112basic_stringIcSt11char_traitsIcESaIcEEE
FN:23,_Z4initv
FN:59,_Z7reshapeii
FN:94,_ZN10VWordModelC2Ev
FN:110,_ZN10VWordModelD2Ev
FN:117,_Z13ReadModelFileiPPc
FN:290,main
FN:304,_Z41__static_initialization_and_destruction_0ii
FN:304,_GLOBAL__sub_I__ZN8GLViewerC2Ev
FNDA:24,_Z4trimRKNSt7__cxx1112basic_stringIcSt11char_traitsIcESaIcEEE
FNDA:1,_Z4initv
FNDA:1,_Z7reshapeii
FNDA:1,_ZN10VWordModelC2Ev
FNDA:0,_ZN10VWordModelD2Ev
FNDA:1,_Z13ReadModelFileiPPc
FNDA:1,main
FNDA:1,_GLOBAL__sub_I__ZN8GLViewerC2Ev
FNDA:1,_Z41__static_initialization_and_destruction_0ii
FNF:9
FNH:8
DA:6,24
DA:8,24
DA:9,24
DA:11,0
DA:13,24
DA:14,24
DA:16,24
DA:18,0
DA:23,1
DA:30,1
DA:31,1
DA:32,1
DA:33,1
DA:34,1
DA:55,1
DA:56,1
DA:59,1
DA:61,1
DA:63,1
DA:64,1
DA:65,1
DA:66,1
DA:67,1
DA:68,1
DA:69,1
DA:70,1
DA:71,1
DA:94,1
DA:96,1
DA:97,1
DA:98,1
DA:101,1
DA:102,1
DA:103,1
DA:104,1
DA:105,1
DA:106,1
DA:107,1
DA:108,1
DA:110,0
DA:112,0
DA:113,0
DA:115,1
DA:117,1
DA:119,1
DA:120,2
DA:121,1
DA:130,1
DA:133,1
DA:136,1
DA:143,2
DA:147,1
DA:149,1
DA:150,1
DA:151,1
DA:152,1
DA:156,1
DA:157,1
DA:158,1
DA:159,1
DA:160,1
DA:161,1
DA:162,1
DA:163,1
DA:167,1
DA:168,1
DA:169,1
DA:170,1
DA:171,1
DA:172,1
DA:173,1
DA:174,1
DA:175,1
DA:179,1
DA:180,1
DA:183,1
DA:184,1
DA:185,1
DA:186,1
DA:187,1
DA:192,1
DA:193,1
DA:194,1
DA:195,1
DA:199,1
DA:200,1
DA:201,1
DA:238,2
DA:240,1
DA:245,2
DA:246,1
DA:247,1
DA:248,1
DA:249,1
DA:251,1
DA:252,1
DA:253,1
DA:255,1
DA:256,1
DA:257,1
DA:258,1
DA:259,1
DA:261,1
DA:263,1
DA:264,1
DA:266,1
DA:267,1
DA:268,1
DA:270,1
DA:271,1
DA:281,1
DA:282,1
DA:286,1
DA:289,1
DA:290,1
DA:292,1
DA:294,1
DA:295,1
DA:296,1
DA:297,1
DA:298,1
DA:300,1
DA:301,1
DA:302,1
DA:303,1
DA:304,3
LF:126
LH:121
end_of_record
SF:/data/tzwang/graphics/ReduceGL/Draw04/Node.h
FN:50,_ZN4Node8TraverseEv
FN:74,_ZN4Node8AddChildEPS_
FN:87,_ZN4NodeC2Ev
FN:97,_ZN4NodeD0Ev
FN:97,_ZN4NodeD2Ev
FN:109,_ZN4Node8GetColorE4EnumPf
FN:166,_ZN4Node6RenderEv
FNDA:5,_ZN4Node8TraverseEv
FNDA:4,_ZN4Node8AddChildEPS_
FNDA:15,_ZN4NodeC2Ev
FNDA:0,_ZN4NodeD0Ev
FNDA:0,_ZN4NodeD2Ev
FNDA:1,_ZN4Node8GetColorE4EnumPf
FNDA:1,_ZN4Node6RenderEv
FNF:7
FNH:5
DA:50,5
DA:53,5
DA:54,4
DA:56,5
DA:57,4
DA:58,5
DA:60,5
DA:63,2
DA:65,5
DA:66,4
DA:67,5
DA:69,2
DA:71,5
DA:74,4
DA:76,4
DA:77,2
DA:80,2
DA:81,2
DA:83,4
DA:85,4
DA:87,15
DA:89,15
DA:90,15
DA:91,15
DA:92,15
DA:93,15
DA:94,15
DA:95,15
DA:97,0
DA:99,0
DA:100,0
DA:101,0
DA:102,0
DA:103,0
DA:104,0
DA:105,0
DA:106,0
DA:109,1
DA:113,1
DA:116,0
DA:117,0
DA:118,0
DA:120,0
DA:121,0
DA:122,0
DA:124,0
DA:125,0
DA:126,0
DA:127,0
DA:129,0
DA:130,0
DA:131,0
DA:132,0
DA:134,0
DA:135,0
DA:136,0
DA:137,0
DA:139,0
DA:140,0
DA:141,0
DA:142,0
DA:144,0
DA:145,0
DA:146,0
DA:147,0
DA:149,0
DA:150,0
DA:151,0
DA:152,0
DA:154,1
DA:155,1
DA:156,1
DA:157,1
DA:160,0
DA:162,1
DA:166,1
DA:168,1
LF:77
LH:37
end_of_record
SF:/data/tzwang/graphics/ReduceGL/Draw04/Transformation.h
FN:7,_ZN14TransformationD2Ev
FN:7,_ZN14TransformationD0Ev
FN:26,_ZN14TransformationC2Ev
FN:36,_ZN14Transformation9SetValuevE4EnumPfi
FN:69,_ZN14Transformation8SetValueE4Enumfffi
FN:77,_ZN14Transformation8SetValueE4Enumffffi
FN:86,_ZN14Transformation6RenderEv
FNDA:0,_ZN14TransformationD0Ev
FNDA:0,_ZN14TransformationD2Ev
FNDA:3,_ZN14TransformationC2Ev
FNDA:4,_ZN14Transformation9SetValuevE4EnumPfi
FNDA:3,_ZN14Transformation8SetValueE4Enumfffi
FNDA:1,_ZN14Transformation8SetValueE4Enumffffi
FNDA:2,_ZN14Transformation6RenderEv
FNF:7
FNH:5
DA:7,0
DA:26,3
DA:30,3
DA:31,33
DA:32,30
DA:33,3
DA:36,4
DA:41,4
DA:42,4
DA:44,4
DA:47,2
DA:49,2
DA:51,1
DA:53,1
DA:55,1
DA:57,1
DA:59,0
DA:62,16
DA:63,12
DA:64,4
DA:65,1
DA:66,4
DA:69,3
DA:71,3
DA:73,3
DA:74,3
DA:77,1
DA:80,1
DA:82,1
DA:83,1
DA:86,2
DA:90,2
DA:91,2
DA:92,8
DA:94,6
DA:97,6
DA:98,8
DA:99,2
DA:100,2
DA:102,3
DA:103,4
DA:104,1
DA:105,1
DA:106,1
DA:108,3
DA:109,4
DA:110,1
DA:111,1
DA:113,2
DA:116,2
LF:50
LH:48
end_of_record
SF:/data/tzwang/graphics/ReduceGL/Draw04/c24bitmap.h
FN:472,_ZN9C24BitMapC2Ev
FN:482,_ZN9C24BitMapD2Ev
FN:513,_ZN9C24BitMap4LoadEPc
FNDA:2,_ZN9C24BitMapC2Ev
FNDA:1,_ZN9C24BitMapD2Ev
FNDA:1,_ZN9C24BitMap4LoadEPc
FNF:3
FNH:3
DA:472,2
DA:474,2
DA:475,2
DA:476,2
DA:477,2
DA:478,2
DA:479,2
DA:480,2
DA:482,2
DA:484,1
DA:485,1
DA:513,1
DA:515,1
DA:518,1
DA:520,1
DA:521,1
DA:525,1
DA:526,1
DA:528,1
DA:530,0
DA:531,0
DA:533,1
DA:534,1
DA:535,1
DA:536,1
DA:537,1
LF:26
LH:24
end_of_record
SF:/data/tzwang/graphics/ReduceGL/Draw04/read_cfg.h
FN:22,_Z8readFilePKcRNSt7__cxx1112basic_stringIcSt11char_traitsIcESaIcEEE
FN:39,_Z11splitStringRKNSt7__cxx1112basic_stringIcSt11char_traitsIcESaIcEEERSt6vectorIS4_SaIS4_EES6_
FN:70,_Z12readlistfilePKcRSt6vectorINSt7__cxx1112basic_stringIcSt11char_traitsIcESaIcEEESaIS7_EE
FNDA:1,_Z8readFilePKcRNSt7__cxx1112basic_stringIcSt11char_traitsIcESaIcEEE
FNDA:5,_Z11splitStringRKNSt7__cxx1112basic_stringIcSt11char_traitsIcESaIcEEERSt6vectorIS4_SaIS4_EES6_
FNDA:1,_Z12readlistfilePKcRSt6vectorINSt7__cxx1112basic_stringIcSt11char_traitsIcESaIcEEESaIS7_EE
FNF:3
FNH:3
DA:22,1
DA:24,1
DA:25,2
DA:26,1
DA:27,1
DA:28,0
DA:30,1
DA:32,9
DA:33,4
DA:34,4
DA:36,1
DA:39,5
DA:42,5
DA:43,5
DA:44,67
DA:45,62
DA:47,31
DA:48,3
DA:50,31
DA:51,31
DA:52,31
DA:53,31
DA:55,5
DA:56,4
DA:58,5
DA:70,1
DA:72,2
DA:73,1
DA:74,1
DA:75,0
DA:77,1
DA:79,1
LF:32
LH:30
end_of_record
SF:/data/tzwang/graphics/ReduceGL/Draw04/readstl.h
FN:28,_Z7Add3DPt5vec3dS_
FN:37,_ZplRK5vec3dS1_
FN:55,_Z20read_binary_STL_fileNSt7__cxx1112basic_stringIcSt11char_traitsIcESaIcEEERSt6vectorI8triangleSaIS6_EERdSA_SA_SA_SA_SA_
FN:158,_Z19read_ascii_STL_fileNSt7__cxx1112basic_stringIcSt11char_traitsIcESaIcEEERSt6vectorI8triangleSaIS6_EERdSA_SA_SA_SA_SA_
FN:269,_Z19getStlGeometryInputPcRSt6vectorI8triangleSaIS1_EERdS5_S5_S5_S5_S5_
FNDA:0,_Z7Add3DPt5vec3dS_
FNDA:0,_ZplRK5vec3dS1_
FNDA:1,_Z20read_binary_STL_fileNSt7__cxx1112basic_stringIcSt11char_traitsIcESaIcEEERSt6vectorI8triangleSaIS6_EERdSA_SA_SA_SA_SA_
FNDA:0,_Z19read_ascii_STL_fileNSt7__cxx1112basic_stringIcSt11char_traitsIcESaIcEEERSt6vectorI8triangleSaIS6_EERdSA_SA_SA_SA_SA_
FNDA:1,_Z19getStlGeometryInputPcRSt6vectorI8triangleSaIS1_EERdS5_S5_S5_S5_S5_
FNF:5
FNH:2
DA:28,0
DA:31,0
DA:32,0
DA:33,0
DA:34,0
DA:37,0
DA:39,0
DA:55,1
DA:59,2
DA:62,2
DA:67,1
DA:71,1
DA:73,0
DA:74,0
DA:78,1
DA:82,1
DA:92,1
DA:93,1
DA:94,1
DA:99,13
DA:102,12
DA:103,12
DA:104,12
DA:107,12
DA:108,12
DA:109,12
DA:112,12
DA:113,12
DA:114,12
DA:117,12
DA:118,12
DA:119,12
DA:122,12
DA:125,12
DA:126,12
DA:127,12
DA:128,12
DA:129,12
DA:130,12
DA:133,12
DA:134,12
DA:135,12
DA:136,12
DA:137,12
DA:138,12
DA:141,12
DA:142,12
DA:143,12
DA:144,12
DA:145,12
DA:146,12
DA:149,12
DA:153,1
DA:155,1
DA:158,0
DA:162,0
DA:165,0
DA:169,0
DA:173,0
DA:175,0
DA:176,0
DA:182,0
DA:188,0
DA:189,0
DA:192,0
DA:196,0
DA:197,0
DA:198,0
DA:201,0
DA:204,0
DA:206,0
DA:209,0
DA:212,0
DA:213,0
DA:216,0
DA:217,0
DA:220,0
DA:221,0
DA:224,0
DA:225,0
DA:228,0
DA:229,0
DA:230,0
DA:231,0
DA:232,0
DA:233,0
DA:236,0
DA:237,0
DA:238,0
DA:239,0
DA:240,0
DA:241,0
DA:244,0
DA:245,0
DA:246,0
DA:247,0
DA:248,0
DA:249,0
DA:252,0
DA:255,0
DA:258,0
DA:263,0
DA:265,0
DA:269,1
DA:277,2
DA:282,1
DA:285,1
DA:288,1
DA:292,1
DA:294,1
DA:296,1
DA:297,1
DA:298,1
DA:301,513
DA:303,256
DA:305,60
DA:307,256
DA:311,1
DA:314,1
DA:317,1
DA:319,2
DA:321,1
DA:323,1
DA:327,0
DA:332,1
DA:335,1
DA:339,0
DA:342,0
DA:344,0
DA:349,1
DA:353,1
DA:356,1
DA:358,0
DA:362,1
DA:364,0
DA:365,0
DA:369,1
DA:372,1
DA:373,1
DA:374,1
DA:375,1
DA:376,1
DA:378,1
LF:143
LH:78
end_of_record
TN:
SF:/data/tzwang/graphics/ReduceGL/Draw04/x11.cpp
FN:35,_ZL13WaitForNotifyP9_XDisplayP7_XEventPc
FN:43,_Z13tkSwapBuffersv
FN:50,_Z13glXMakeDrawOkP9_XDisplaymPvii
FN:127,_Z7ui_loopiPPcPKc
FNDA:0,_ZL13WaitForNotifyP9_XDisplayP7_XEventPc
FNDA:1,_Z13tkSwapBuffersv
FNDA:1,_Z13glXMakeDrawOkP9_XDisplaymPvii
FNDA:1,_Z7ui_loopiPPcPKc
FNF:4
FNH:3
DA:35,0
DA:37,0
DA:43,1
DA:45,1
DA:46,1
DA:50,1
DA:54,1
DA:63,1
DA:66,1
DA:67,1
DA:70,1
DA:71,1
DA:73,1
DA:74,1
DA:79,1
DA:80,1
DA:85,1
DA:86,1
DA:88,1
DA:89,1
DA:90,1
DA:92,0
DA:93,0
DA:94,0
DA:96,0
DA:97,0
DA:98,0
DA:100,1
DA:101,1
DA:102,0
DA:103,0
DA:109,1
DA:110,1
DA:112,1
DA:113,1
DA:114,1
DA:115,1
DA:118,1
DA:119,1
DA:121,1
DA:124,1
DA:127,1
DA:142,1
DA:143,1
DA:146,1
DA:153,1
DA:154,1
DA:175,1
DA:177,1
DA:178,1
DA:180,1
LF:51
LH:41
end_of_record
