TN:
SF:/usr/include/c++/5/bits/allocator.h
FN:113,_ZNSaIhEC2Ev
FN:113,_ZNSaI8GLVertexEC2Ev
FN:113,_ZNSaISt13_Rb_tree_nodeISt4pairIKi9GLTextureEEEC2Ev
FN:113,_ZNSaI8triangleEC2Ev
FN:113,_ZNSaIP8StlShapeEC2Ev
FN:113,_ZNSaINSt7__cxx1112basic_stringIcSt11char_traitsIcESaIcEEEEC2Ev
FN:113,_ZNSaIP14TransformationEC2Ev
FN:113,_ZNSaI2M4EC2Ev
FN:115,_ZNSaIhEC2ERKS_
FN:119,_ZNSaISt4pairIKi9GLTextureEEC2ISt13_Rb_tree_nodeIS2_EEERKSaIT_E
FN:121,_ZNSaI8triangleED2Ev
FN:121,_ZNSaISt4pairIKi9GLTextureEED2Ev
FN:121,_ZNSaI8GLVertexED2Ev
FN:121,_ZNSaI2M4ED2Ev
FN:121,_ZNSaIP8StlShapeED2Ev
FN:121,_ZNSaISt13_Rb_tree_nodeISt4pairIKi9GLTextureEEED2Ev
FN:121,_ZNSaIhED2Ev
FN:121,_ZNSaIP14TransformationED2Ev
FN:121,_ZNSaINSt7__cxx1112basic_stringIcSt11char_traitsIcESaIcEEEED2Ev
FNDA:2,_ZNSaINSt7__cxx1112basic_stringIcSt11char_traitsIcESaIcEEEEC2Ev
FNDA:1,_ZNSaISt13_Rb_tree_nodeISt4pairIKi9GLTextureEEEC2Ev
FNDA:1,_ZNSaI8GLVertexEC2Ev
FNDA:3,_ZNSaI2M4EC2Ev
FNDA:1,_ZNSaIP14TransformationEC2Ev
FNDA:1,_ZNSaIP8StlShapeEC2Ev
FNDA:1,_ZNSaI8triangleEC2Ev
FNDA:22,_ZNSaIhEC2Ev
FNDA:22,_ZNSaIhEC2ERKS_
FNDA:1,_ZNSaISt4pairIKi9GLTextureEEC2ISt13_Rb_tree_nodeIS2_EEERKSaIT_E
FNDA:1,_ZNSaISt4pairIKi9GLTextureEED2Ev
FNDA:2,_ZNSaINSt7__cxx1112basic_stringIcSt11char_traitsIcESaIcEEEED2Ev
FNDA:0,_ZNSaI8GLVertexED2Ev
FNDA:0,_ZNSaI2M4ED2Ev
FNDA:0,_ZNSaIP14TransformationED2Ev
FNDA:0,_ZNSaIP8StlShapeED2Ev
FNDA:0,_ZNSaI8triangleED2Ev
FNDA:33,_ZNSaIhED2Ev
FNDA:0,_ZNSaISt13_Rb_tree_nodeISt4pairIKi9GLTextureEEED2Ev
FNF:19
FNH:13
DA:113,32
DA:115,22
DA:116,22
DA:119,1
DA:121,36
LF:5
LH:5
end_of_record
SF:/usr/include/c++/5/bits/basic_string.h
FN:4783,_ZStplIcSt11char_traitsIcESaIcEENSt7__cxx1112basic_stringIT_T0_T1_EERKS8_SA_
FN:4820,_ZStplIcSt11char_traitsIcESaIcEENSt7__cxx1112basic_stringIT_T0_T1_EERKS8_PKS5_
FN:4937,_ZSteqIcSt11char_traitsIcESaIcEEbRKNSt7__cxx1112basic_stringIT_T0_T1_EEPKS5_
FN:4974,_ZStneIcSt11char_traitsIcESaIcEEbRKNSt7__cxx1112basic_stringIT_T0_T1_EEPKS5_
FNDA:1,_ZStplIcSt11char_traitsIcESaIcEENSt7__cxx1112basic_stringIT_T0_T1_EERKS8_SA_
FNDA:13,_ZStplIcSt11char_traitsIcESaIcEENSt7__cxx1112basic_stringIT_T0_T1_EERKS8_PKS5_
FNDA:4,_ZSteqIcSt11char_traitsIcESaIcEEbRKNSt7__cxx1112basic_stringIT_T0_T1_EEPKS5_
FNDA:2,_ZStneIcSt11char_traitsIcESaIcEEbRKNSt7__cxx1112basic_stringIT_T0_T1_EEPKS5_
FNF:4
FNH:4
DA:4783,1
DA:4786,1
DA:4787,1
DA:4788,1
DA:4820,13
DA:4823,13
DA:4824,13
DA:4825,13
DA:4937,4
DA:4939,4
DA:4974,2
DA:4976,2
LF:12
LH:12
end_of_record
SF:/usr/include/c++/5/bits/ios_base.h
FN:129,_ZStorSt13_Ios_OpenmodeS_
FNDA:1,_ZStorSt13_Ios_OpenmodeS_
FNF:1
FNH:1
DA:129,1
DA:130,1
LF:2
LH:2
end_of_record
SF:/usr/include/c++/5/bits/move.h
FN:47,_ZSt11__addressofIKSt4pairIKi9GLTextureEEPT_RS5_
FN:47,_ZSt11__addressofINSt7__cxx1112basic_stringIcSt11char_traitsIcESaIcEEEEPT_RS6_
FN:47,_ZSt11__addressofI2M4EPT_RS1_
FN:47,_ZSt11__addressofISt4pairIKi9GLTextureEEPT_RS4_
FNDA:48,_ZSt11__addressofI2M4EPT_RS1_
FNDA:1,_ZSt11__addressofIKSt4pairIKi9GLTextureEEPT_RS5_
FNDA:93,_ZSt11__addressofINSt7__cxx1112basic_stringIcSt11char_traitsIcESaIcEEEEPT_RS6_
FNDA:4,_ZSt11__addressofISt4pairIKi9GLTextureEEPT_RS4_
FNF:4
FNH:4
DA:47,146
DA:50,146
LF:2
LH:2
end_of_record
SF:/usr/include/c++/5/bits/postypes.h
FN:133,_ZNSt4fposI11__mbstate_tEC2El
FNDA:1,_ZNSt4fposI11__mbstate_tEC2El
FNF:1
FNH:1
DA:133,1
DA:134,1
LF:2
LH:2
end_of_record
SF:/usr/include/c++/5/bits/stl_algobase.h
FN:195,_ZSt3minIdERKT_S2_S2_
FN:219,_ZSt3maxImERKT_S2_S2_
FN:282,_ZSt12__niter_baseIPNSt7__cxx1112basic_stringIcSt11char_traitsIcESaIcEEEENSt11_Niter_baseIT_E13iterator_typeES8_
FN:282,_ZSt12__niter_baseIPhENSt11_Niter_baseIT_E13iterator_typeES2_
FN:282,_ZSt12__niter_baseIN9__gnu_cxx17__normal_iteratorIPhSt6vectorIhSaIhEEEEENSt11_Niter_baseIT_E13iterator_typeES8_
FN:282,_ZSt12__niter_baseIN9__gnu_cxx17__normal_iteratorIPKhSt6vectorIhSaIhEEEEENSt11_Niter_baseIT_E13iterator_typeES9_
FN:282,_ZSt12__niter_baseIP2M4ENSt11_Niter_baseIT_E13iterator_typeES3_
FN:282,_ZSt12__niter_baseIPP8StlShapeENSt11_Niter_baseIT_E13iterator_typeES4_
FN:282,_ZSt12__niter_baseIP8triangleENSt11_Niter_baseIT_E13iterator_typeES3_
FN:282,_ZSt12__niter_baseIPP14TransformationENSt11_Niter_baseIT_E13iterator_typeES4_
FN:282,_ZSt12__niter_baseIP8GLVertexENSt11_Niter_baseIT_E13iterator_typeES3_
FN:293,_ZSt12__miter_baseIP8triangleENSt11_Miter_baseIT_E13iterator_typeES3_
FN:293,_ZSt12__miter_baseIN9__gnu_cxx17__normal_iteratorIPKhSt6vectorIhSaIhEEEEENSt11_Miter_baseIT_E13iterator_typeES9_
FN:293,_ZSt12__miter_baseIP8GLVertexENSt11_Miter_baseIT_E13iterator_typeES3_
FN:293,_ZSt12__miter_baseIP2M4ENSt11_Miter_baseIT_E13iterator_typeES3_
FN:293,_ZSt12__miter_baseIPNSt7__cxx1112basic_stringIcSt11char_traitsIcESaIcEEEENSt11_Miter_baseIT_E13iterator_typeES8_
FN:293,_ZSt12__miter_baseIPP14TransformationENSt11_Miter_baseIT_E13iterator_typeES4_
FN:293,_ZSt12__miter_baseIPhENSt11_Miter_baseIT_E13iterator_typeES2_
FN:293,_ZSt12__miter_baseIPP8StlShapeENSt11_Miter_baseIT_E13iterator_typeES4_
FN:373,_ZNSt11__copy_moveILb0ELb1ESt26random_access_iterator_tagE8__copy_mI8GLVertexEEPT_PKS4_S7_S5_
FN:373,_ZNSt11__copy_moveILb0ELb1ESt26random_access_iterator_tagE8__copy_mI8triangleEEPT_PKS4_S7_S5_
FN:373,_ZNSt11__copy_moveILb0ELb1ESt26random_access_iterator_tagE8__copy_mIhEEPT_PKS3_S6_S4_
FN:373,_ZNSt11__copy_moveILb0ELb1ESt26random_access_iterator_tagE8__copy_mIP8StlShapeEEPT_PKS5_S8_S6_
FN:373,_ZNSt11__copy_moveILb0ELb1ESt26random_access_iterator_tagE8__copy_mIP14TransformationEEPT_PKS5_S8_S6_
FN:391,_ZSt13__copy_move_aILb0EP8GLVertexS1_ET1_T0_S3_S2_
FN:391,_ZSt13__copy_move_aILb0EPhS0_ET1_T0_S2_S1_
FN:391,_ZSt13__copy_move_aILb0EP8triangleS1_ET1_T0_S3_S2_
FN:391,_ZSt13__copy_move_aILb0EPP8StlShapeS2_ET1_T0_S4_S3_
FN:391,_ZSt13__copy_move_aILb0EPKhPhET1_T0_S4_S3_
FN:391,_ZSt13__copy_move_aILb0EPP14TransformationS2_ET1_T0_S4_S3_
FN:436,_ZSt14__copy_move_a2ILb0EP8GLVertexS1_ET1_T0_S3_S2_
FN:436,_ZSt14__copy_move_a2ILb0EPP14TransformationS2_ET1_T0_S4_S3_
FN:436,_ZSt14__copy_move_a2ILb0EN9__gnu_cxx17__normal_iteratorIPKhSt6vectorIhSaIhEEEENS1_IPhS6_EEET1_T0_SB_SA_
FN:436,_ZSt14__copy_move_a2ILb0EP8triangleS1_ET1_T0_S3_S2_
FN:436,_ZSt14__copy_move_a2ILb0EPhS0_ET1_T0_S2_S1_
FN:436,_ZSt14__copy_move_a2ILb0EPP8StlShapeS2_ET1_T0_S4_S3_
FN:436,_ZSt14__copy_move_a2ILb0EN9__gnu_cxx17__normal_iteratorIPKhSt6vectorIhSaIhEEEEPhET1_T0_SA_S9_
FN:462,_ZSt4copyIPhS0_ET0_T_S2_S1_
FN:462,_ZSt4copyIN9__gnu_cxx17__normal_iteratorIPKhSt6vectorIhSaIhEEEENS1_IPhS6_EEET0_T_SB_SA_
FN:462,_ZSt4copyIPP8StlShapeS2_ET0_T_S4_S3_
FN:462,_ZSt4copyIN9__gnu_cxx17__normal_iteratorIPKhSt6vectorIhSaIhEEEEPhET0_T_SA_S9_
FN:462,_ZSt4copyIPP14TransformationS2_ET0_T_S4_S3_
FN:462,_ZSt4copyIP8GLVertexS1_ET0_T_S3_S2_
FN:462,_ZSt4copyIP8triangleS1_ET0_T_S3_S2_
FN:545,_ZNSt20__copy_move_backwardILb0ELb0ESt26random_access_iterator_tagE13__copy_move_bIPNSt7__cxx1112basic_stringIcSt11char_traitsIcESaIcEEES9_EET0_T_SB_SA_
FN:545,_ZNSt20__copy_move_backwardILb0ELb0ESt26random_access_iterator_tagE13__copy_move_bIP2M4S4_EET0_T_S6_S5_
FN:575,_ZNSt20__copy_move_backwardILb0ELb1ESt26random_access_iterator_tagE13__copy_move_bIP8StlShapeEEPT_PKS5_S8_S6_
FN:575,_ZNSt20__copy_move_backwardILb0ELb1ESt26random_access_iterator_tagE13__copy_move_bIP14TransformationEEPT_PKS5_S8_S6_
FN:575,_ZNSt20__copy_move_backwardILb0ELb1ESt26random_access_iterator_tagE13__copy_move_bI8triangleEEPT_PKS4_S7_S5_
FN:575,_ZNSt20__copy_move_backwardILb0ELb1ESt26random_access_iterator_tagE13__copy_move_bIhEEPT_PKS3_S6_S4_
FN:575,_ZNSt20__copy_move_backwardILb0ELb1ESt26random_access_iterator_tagE13__copy_move_bI8GLVertexEEPT_PKS4_S7_S5_
FN:593,_ZSt22__copy_move_backward_aILb0EPhS0_ET1_T0_S2_S1_
FN:593,_ZSt22__copy_move_backward_aILb0EPP8StlShapeS2_ET1_T0_S4_S3_
FN:593,_ZSt22__copy_move_backward_aILb0EP2M4S1_ET1_T0_S3_S2_
FN:593,_ZSt22__copy_move_backward_aILb0EP8GLVertexS1_ET1_T0_S3_S2_
FN:593,_ZSt22__copy_move_backward_aILb0EP8triangleS1_ET1_T0_S3_S2_
FN:593,_ZSt22__copy_move_backward_aILb0EPP14TransformationS2_ET1_T0_S4_S3_
FN:593,_ZSt22__copy_move_backward_aILb0EPNSt7__cxx1112basic_stringIcSt11char_traitsIcESaIcEEES6_ET1_T0_S8_S7_
FN:611,_ZSt23__copy_move_backward_a2ILb0EPP14TransformationS2_ET1_T0_S4_S3_
FN:611,_ZSt23__copy_move_backward_a2ILb0EP8GLVertexS1_ET1_T0_S3_S2_
FN:611,_ZSt23__copy_move_backward_a2ILb0EP2M4S1_ET1_T0_S3_S2_
FN:611,_ZSt23__copy_move_backward_a2ILb0EPNSt7__cxx1112basic_stringIcSt11char_traitsIcESaIcEEES6_ET1_T0_S8_S7_
FN:611,_ZSt23__copy_move_backward_a2ILb0EP8triangleS1_ET1_T0_S3_S2_
FN:611,_ZSt23__copy_move_backward_a2ILb0EPP8StlShapeS2_ET1_T0_S4_S3_
FN:611,_ZSt23__copy_move_backward_a2ILb0EPhS0_ET1_T0_S2_S1_
FN:638,_ZSt13copy_backwardIPP8StlShapeS2_ET0_T_S4_S3_
FN:638,_ZSt13copy_backwardIPhS0_ET0_T_S2_S1_
FN:638,_ZSt13copy_backwardIP8GLVertexS1_ET0_T_S3_S2_
FN:638,_ZSt13copy_backwardIPNSt7__cxx1112basic_stringIcSt11char_traitsIcESaIcEEES6_ET0_T_S8_S7_
FN:638,_ZSt13copy_backwardIPP14TransformationS2_ET0_T_S4_S3_
FN:638,_ZSt13copy_backwardIP2M4S1_ET0_T_S3_S2_
FN:638,_ZSt13copy_backwardIP8triangleS1_ET0_T_S3_S2_
FN:697,_ZSt8__fill_aIP8GLVertexS0_EN9__gnu_cxx11__enable_ifIXntsrSt11__is_scalarIT0_E7__valueEvE6__typeET_S9_RKS5_
FN:697,_ZSt8__fill_aIP2M4S0_EN9__gnu_cxx11__enable_ifIXntsrSt11__is_scalarIT0_E7__valueEvE6__typeET_S9_RKS5_
FN:707,_ZSt8__fill_aIPP8StlShapeS1_EN9__gnu_cxx11__enable_ifIXsrSt11__is_scalarIT0_E7__valueEvE6__typeET_SA_RKS6_
FN:707,_ZSt8__fill_aIPP14TransformationS1_EN9__gnu_cxx11__enable_ifIXsrSt11__is_scalarIT0_E7__valueEvE6__typeET_SA_RKS6_
FN:719,_ZSt8__fill_aIhEN9__gnu_cxx11__enable_ifIXsrSt9__is_byteIT_E7__valueEvE6__typeEPS3_S7_RKS3_
FN:740,_ZSt4fillIPhhEvT_S1_RKT0_
FN:740,_ZSt4fillIP8GLVertexS0_EvT_S2_RKT0_
FN:740,_ZSt4fillIP2M4S0_EvT_S2_RKT0_
FN:740,_ZSt4fillIPP14TransformationS1_EvT_S3_RKT0_
FN:740,_ZSt4fillIPP8StlShapeS1_EvT_S3_RKT0_
FN:754,_ZSt10__fill_n_aIP8GLVertexmS0_EN9__gnu_cxx11__enable_ifIXntsrSt11__is_scalarIT1_E7__valueET_E6__typeES7_T0_RKS5_
FN:765,_ZSt10__fill_n_aIPP14TransformationmS1_EN9__gnu_cxx11__enable_ifIXsrSt11__is_scalarIT1_E7__valueET_E6__typeES8_T0_RKS6_
FN:765,_ZSt10__fill_n_aIPP8StlShapemS1_EN9__gnu_cxx11__enable_ifIXsrSt11__is_scalarIT1_E7__valueET_E6__typeES8_T0_RKS6_
FN:777,_ZSt10__fill_n_aImhEN9__gnu_cxx11__enable_ifIXsrSt9__is_byteIT0_E7__valueEPS3_E6__typeES5_T_RKS3_
FN:800,_ZSt6fill_nIPhmhET_S1_T0_RKT1_
FN:800,_ZSt6fill_nIP8GLVertexmS0_ET_S2_T0_RKT1_
FN:800,_ZSt6fill_nIPP8StlShapemS1_ET_S3_T0_RKT1_
FN:800,_ZSt6fill_nIPP14TransformationmS1_ET_S3_T0_RKT1_
FNDA:15,_ZSt3minIdERKT_S2_S2_
FNDA:33,_ZSt3maxImERKT_S2_S2_
FNDA:7,_ZSt12__niter_baseIPP14TransformationENSt11_Niter_baseIT_E13iterator_typeES4_
FNDA:7,_ZSt12__niter_baseIPP8StlShapeENSt11_Niter_baseIT_E13iterator_typeES4_
FNDA:108,_ZSt12__niter_baseIP8triangleENSt11_Niter_baseIT_E13iterator_typeES3_
FNDA:7,_ZSt12__niter_baseIP8GLVertexENSt11_Niter_baseIT_E13iterator_typeES3_
FNDA:0,_ZSt12__niter_baseIP2M4ENSt11_Niter_baseIT_E13iterator_typeES3_
FNDA:0,_ZSt12__niter_baseIPNSt7__cxx1112basic_stringIcSt11char_traitsIcESaIcEEEENSt11_Niter_baseIT_E13iterator_typeES8_
FNDA:22,_ZSt12__niter_baseIPhENSt11_Niter_baseIT_E13iterator_typeES2_
FNDA:11,_ZSt12__niter_baseIN9__gnu_cxx17__normal_iteratorIPhSt6vectorIhSaIhEEEEENSt11_Niter_baseIT_E13iterator_typeES8_
FNDA:66,_ZSt12__niter_baseIN9__gnu_cxx17__normal_iteratorIPKhSt6vectorIhSaIhEEEEENSt11_Niter_baseIT_E13iterator_typeES9_
FNDA:4,_ZSt12__miter_baseIPP14TransformationENSt11_Miter_baseIT_E13iterator_typeES4_
FNDA:4,_ZSt12__miter_baseIPP8StlShapeENSt11_Miter_baseIT_E13iterator_typeES4_
FNDA:4,_ZSt12__miter_baseIP8GLVertexENSt11_Miter_baseIT_E13iterator_typeES3_
FNDA:0,_ZSt12__miter_baseIP2M4ENSt11_Miter_baseIT_E13iterator_typeES3_
FNDA:72,_ZSt12__miter_baseIP8triangleENSt11_Miter_baseIT_E13iterator_typeES3_
FNDA:0,_ZSt12__miter_baseIPNSt7__cxx1112basic_stringIcSt11char_traitsIcESaIcEEEENSt11_Miter_baseIT_E13iterator_typeES8_
FNDA:0,_ZSt12__miter_baseIPhENSt11_Miter_baseIT_E13iterator_typeES2_
FNDA:66,_ZSt12__miter_baseIN9__gnu_cxx17__normal_iteratorIPKhSt6vectorIhSaIhEEEEENSt11_Miter_baseIT_E13iterator_typeES9_
FNDA:2,_ZNSt11__copy_moveILb0ELb1ESt26random_access_iterator_tagE8__copy_mIP14TransformationEEPT_PKS5_S8_S6_
FNDA:2,_ZNSt11__copy_moveILb0ELb1ESt26random_access_iterator_tagE8__copy_mIP8StlShapeEEPT_PKS5_S8_S6_
FNDA:2,_ZNSt11__copy_moveILb0ELb1ESt26random_access_iterator_tagE8__copy_mI8GLVertexEEPT_PKS4_S7_S5_
FNDA:36,_ZNSt11__copy_moveILb0ELb1ESt26random_access_iterator_tagE8__copy_mI8triangleEEPT_PKS4_S7_S5_
FNDA:33,_ZNSt11__copy_moveILb0ELb1ESt26random_access_iterator_tagE8__copy_mIhEEPT_PKS3_S6_S4_
FNDA:2,_ZSt13__copy_move_aILb0EPP14TransformationS2_ET1_T0_S4_S3_
FNDA:2,_ZSt13__copy_move_aILb0EPP8StlShapeS2_ET1_T0_S4_S3_
FNDA:2,_ZSt13__copy_move_aILb0EP8GLVertexS1_ET1_T0_S3_S2_
FNDA:36,_ZSt13__copy_move_aILb0EP8triangleS1_ET1_T0_S3_S2_
FNDA:0,_ZSt13__copy_move_aILb0EPhS0_ET1_T0_S2_S1_
FNDA:33,_ZSt13__copy_move_aILb0EPKhPhET1_T0_S4_S3_
FNDA:2,_ZSt14__copy_move_a2ILb0EPP14TransformationS2_ET1_T0_S4_S3_
FNDA:2,_ZSt14__copy_move_a2ILb0EPP8StlShapeS2_ET1_T0_S4_S3_
FNDA:2,_ZSt14__copy_move_a2ILb0EP8GLVertexS1_ET1_T0_S3_S2_
FNDA:36,_ZSt14__copy_move_a2ILb0EP8triangleS1_ET1_T0_S3_S2_
FNDA:22,_ZSt14__copy_move_a2ILb0EN9__gnu_cxx17__normal_iteratorIPKhSt6vectorIhSaIhEEEEPhET1_T0_SA_S9_
FNDA:0,_ZSt14__copy_move_a2ILb0EPhS0_ET1_T0_S2_S1_
FNDA:11,_ZSt14__copy_move_a2ILb0EN9__gnu_cxx17__normal_iteratorIPKhSt6vectorIhSaIhEEEENS1_IPhS6_EEET1_T0_SB_SA_
FNDA:2,_ZSt4copyIPP14TransformationS2_ET0_T_S4_S3_
FNDA:2,_ZSt4copyIPP8StlShapeS2_ET0_T_S4_S3_
FNDA:2,_ZSt4copyIP8GLVertexS1_ET0_T_S3_S2_
FNDA:36,_ZSt4copyIP8triangleS1_ET0_T_S3_S2_
FNDA:22,_ZSt4copyIN9__gnu_cxx17__normal_iteratorIPKhSt6vectorIhSaIhEEEEPhET0_T_SA_S9_
FNDA:0,_ZSt4copyIPhS0_ET0_T_S2_S1_
FNDA:11,_ZSt4copyIN9__gnu_cxx17__normal_iteratorIPKhSt6vectorIhSaIhEEEENS1_IPhS6_EEET0_T_SB_SA_
FNDA:0,_ZNSt20__copy_move_backwardILb0ELb0ESt26random_access_iterator_tagE13__copy_move_bIP2M4S4_EET0_T_S6_S5_
FNDA:0,_ZNSt20__copy_move_backwardILb0ELb0ESt26random_access_iterator_tagE13__copy_move_bIPNSt7__cxx1112basic_stringIcSt11char_traitsIcESaIcEEES9_EET0_T_SB_SA_
FNDA:0,_ZNSt20__copy_move_backwardILb0ELb1ESt26random_access_iterator_tagE13__copy_move_bIP14TransformationEEPT_PKS5_S8_S6_
FNDA:0,_ZNSt20__copy_move_backwardILb0ELb1ESt26random_access_iterator_tagE13__copy_move_bIP8StlShapeEEPT_PKS5_S8_S6_
FNDA:0,_ZNSt20__copy_move_backwardILb0ELb1ESt26random_access_iterator_tagE13__copy_move_bIhEEPT_PKS3_S6_S4_
FNDA:0,_ZNSt20__copy_move_backwardILb0ELb1ESt26random_access_iterator_tagE13__copy_move_bI8GLVertexEEPT_PKS4_S7_S5_
FNDA:0,_ZNSt20__copy_move_backwardILb0ELb1ESt26random_access_iterator_tagE13__copy_move_bI8triangleEEPT_PKS4_S7_S5_
FNDA:0,_ZSt22__copy_move_backward_aILb0EPP14TransformationS2_ET1_T0_S4_S3_
FNDA:0,_ZSt22__copy_move_backward_aILb0EPP8StlShapeS2_ET1_T0_S4_S3_
FNDA:0,_ZSt22__copy_move_backward_aILb0EPhS0_ET1_T0_S2_S1_
FNDA:0,_ZSt22__copy_move_backward_aILb0EP8GLVertexS1_ET1_T0_S3_S2_
FNDA:0,_ZSt22__copy_move_backward_aILb0EP2M4S1_ET1_T0_S3_S2_
FNDA:0,_ZSt22__copy_move_backward_aILb0EP8triangleS1_ET1_T0_S3_S2_
FNDA:0,_ZSt22__copy_move_backward_aILb0EPNSt7__cxx1112basic_stringIcSt11char_traitsIcESaIcEEES6_ET1_T0_S8_S7_
FNDA:0,_ZSt23__copy_move_backward_a2ILb0EPP14TransformationS2_ET1_T0_S4_S3_
FNDA:0,_ZSt23__copy_move_backward_a2ILb0EPP8StlShapeS2_ET1_T0_S4_S3_
FNDA:0,_ZSt23__copy_move_backward_a2ILb0EPhS0_ET1_T0_S2_S1_
FNDA:0,_ZSt23__copy_move_backward_a2ILb0EP8GLVertexS1_ET1_T0_S3_S2_
FNDA:0,_ZSt23__copy_move_backward_a2ILb0EP2M4S1_ET1_T0_S3_S2_
FNDA:0,_ZSt23__copy_move_backward_a2ILb0EP8triangleS1_ET1_T0_S3_S2_
FNDA:0,_ZSt23__copy_move_backward_a2ILb0EPNSt7__cxx1112basic_stringIcSt11char_traitsIcESaIcEEES6_ET1_T0_S8_S7_
FNDA:0,_ZSt13copy_backwardIPP14TransformationS2_ET0_T_S4_S3_
FNDA:0,_ZSt13copy_backwardIPP8StlShapeS2_ET0_T_S4_S3_
FNDA:0,_ZSt13copy_backwardIPhS0_ET0_T_S2_S1_
FNDA:0,_ZSt13copy_backwardIP8GLVertexS1_ET0_T_S3_S2_
FNDA:0,_ZSt13copy_backwardIP2M4S1_ET0_T_S3_S2_
FNDA:0,_ZSt13copy_backwardIP8triangleS1_ET0_T_S3_S2_
FNDA:0,_ZSt13copy_backwardIPNSt7__cxx1112basic_stringIcSt11char_traitsIcESaIcEEES6_ET0_T_S8_S7_
FNDA:0,_ZSt8__fill_aIP8GLVertexS0_EN9__gnu_cxx11__enable_ifIXntsrSt11__is_scalarIT0_E7__valueEvE6__typeET_S9_RKS5_
FNDA:0,_ZSt8__fill_aIP2M4S0_EN9__gnu_cxx11__enable_ifIXntsrSt11__is_scalarIT0_E7__valueEvE6__typeET_S9_RKS5_
FNDA:0,_ZSt8__fill_aIPP14TransformationS1_EN9__gnu_cxx11__enable_ifIXsrSt11__is_scalarIT0_E7__valueEvE6__typeET_SA_RKS6_
FNDA:0,_ZSt8__fill_aIPP8StlShapeS1_EN9__gnu_cxx11__enable_ifIXsrSt11__is_scalarIT0_E7__valueEvE6__typeET_SA_RKS6_
FNDA:0,_ZSt8__fill_aIhEN9__gnu_cxx11__enable_ifIXsrSt9__is_byteIT_E7__valueEvE6__typeEPS3_S7_RKS3_
FNDA:0,_ZSt4fillIPP14TransformationS1_EvT_S3_RKT0_
FNDA:0,_ZSt4fillIPP8StlShapeS1_EvT_S3_RKT0_
FNDA:0,_ZSt4fillIPhhEvT_S1_RKT0_
FNDA:0,_ZSt4fillIP8GLVertexS0_EvT_S2_RKT0_
FNDA:0,_ZSt4fillIP2M4S0_EvT_S2_RKT0_
FNDA:1,_ZSt10__fill_n_aIP8GLVertexmS0_EN9__gnu_cxx11__enable_ifIXntsrSt11__is_scalarIT1_E7__valueET_E6__typeES7_T0_RKS5_
FNDA:1,_ZSt10__fill_n_aIPP14TransformationmS1_EN9__gnu_cxx11__enable_ifIXsrSt11__is_scalarIT1_E7__valueET_E6__typeES8_T0_RKS6_
FNDA:1,_ZSt10__fill_n_aIPP8StlShapemS1_EN9__gnu_cxx11__enable_ifIXsrSt11__is_scalarIT1_E7__valueET_E6__typeES8_T0_RKS6_
FNDA:0,_ZSt10__fill_n_aImhEN9__gnu_cxx11__enable_ifIXsrSt9__is_byteIT0_E7__valueEPS3_E6__typeES5_T_RKS3_
FNDA:1,_ZSt6fill_nIPP14TransformationmS1_ET_S3_T0_RKT1_
FNDA:1,_ZSt6fill_nIPP8StlShapemS1_ET_S3_T0_RKT1_
FNDA:0,_ZSt6fill_nIPhmhET_S1_T0_RKT1_
FNDA:1,_ZSt6fill_nIP8GLVertexmS0_ET_S2_T0_RKT1_
FNF:90
FNH:42
DA:195,15
DA:200,15
DA:201,4
DA:202,11
DA:219,33
DA:224,33
DA:225,9
DA:226,24
DA:282,228
DA:283,228
DA:293,150
DA:294,150
DA:373,75
DA:382,75
DA:383,75
DA:384,17
DA:385,75
DA:391,75
DA:399,75
DA:402,75
DA:436,75
DA:438,75
DA:440,75
DA:462,75
DA:471,75
DA:472,75
DA:545,0
DA:548,0
DA:549,0
DA:550,0
DA:575,0
DA:584,0
DA:585,0
DA:586,0
DA:587,0
DA:593,0
DA:601,0
DA:606,0
DA:611,0
DA:614,0
DA:615,0
DA:638,0
DA:649,0
DA:650,0
DA:697,0
DA:700,0
DA:701,0
DA:702,0
DA:707,0
DA:710,0
DA:711,0
DA:712,0
DA:713,0
DA:719,0
DA:721,0
DA:722,0
DA:723,0
DA:724,0
DA:740,0
DA:747,0
DA:749,0
DA:754,1
DA:756,17
DA:758,16
DA:759,1
DA:765,2
DA:767,2
DA:768,4
DA:770,2
DA:771,2
DA:777,0
DA:779,0
DA:780,0
DA:800,3
DA:805,3
LF:75
LH:37
end_of_record
SF:/usr/include/c++/5/bits/stl_construct.h
FN:79,_ZSt10_ConstructI2M4S0_EvPT_RKT0_
FN:79,_ZSt10_ConstructINSt7__cxx1112basic_stringIcSt11char_traitsIcESaIcEEES5_EvPT_RKT0_
FN:92,_ZSt8_DestroyINSt7__cxx1112basic_stringIcSt11char_traitsIcESaIcEEEEvPT_
FN:100,_ZNSt12_Destroy_auxILb0EE9__destroyIPNSt7__cxx1112basic_stringIcSt11char_traitsIcESaIcEEEEEvT_S9_
FN:112,_ZNSt12_Destroy_auxILb1EE9__destroyIPP8StlShapeEEvT_S5_
FN:112,_ZNSt12_Destroy_auxILb1EE9__destroyIN9__gnu_cxx17__normal_iteratorIPhSt6vectorIhSaIhEEEEEEvT_S9_
FN:112,_ZNSt12_Destroy_auxILb1EE9__destroyIP2M4EEvT_S4_
FN:112,_ZNSt12_Destroy_auxILb1EE9__destroyIP8GLVertexEEvT_S4_
FN:112,_ZNSt12_Destroy_auxILb1EE9__destroyIP8triangleEEvT_S4_
FN:112,_ZNSt12_Destroy_auxILb1EE9__destroyIPhEEvT_S3_
FN:112,_ZNSt12_Destroy_auxILb1EE9__destroyIPP14TransformationEEvT_S5_
FN:122,_ZSt8_DestroyIP8triangleEvT_S2_
FN:122,_ZSt8_DestroyIPP14TransformationEvT_S3_
FN:122,_ZSt8_DestroyIP8GLVertexEvT_S2_
FN:122,_ZSt8_DestroyIN9__gnu_cxx17__normal_iteratorIPhSt6vectorIhSaIhEEEEEvT_S7_
FN:122,_ZSt8_DestroyIPP8StlShapeEvT_S3_
FN:122,_ZSt8_DestroyIP2M4EvT_S2_
FN:122,_ZSt8_DestroyIPNSt7__cxx1112basic_stringIcSt11char_traitsIcESaIcEEEEvT_S7_
FN:122,_ZSt8_DestroyIPhEvT_S1_
FN:148,_ZSt8_DestroyIPP8StlShapeS1_EvT_S3_RSaIT0_E
FN:148,_ZSt8_DestroyIP8GLVertexS0_EvT_S2_RSaIT0_E
FN:148,_ZSt8_DestroyIP8triangleS0_EvT_S2_RSaIT0_E
FN:148,_ZSt8_DestroyIN9__gnu_cxx17__normal_iteratorIPhSt6vectorIhSaIhEEEEhEvT_S7_RSaIT0_E
FN:148,_ZSt8_DestroyIPP14TransformationS1_EvT_S3_RSaIT0_E
FN:148,_ZSt8_DestroyIP2M4S0_EvT_S2_RSaIT0_E
FN:148,_ZSt8_DestroyIPhhEvT_S1_RSaIT0_E
FN:148,_ZSt8_DestroyIPNSt7__cxx1112basic_stringIcSt11char_traitsIcESaIcEEES5_EvT_S7_RSaIT0_E
FNDA:48,_ZSt10_ConstructI2M4S0_EvPT_RKT0_
FNDA:22,_ZSt10_ConstructINSt7__cxx1112basic_stringIcSt11char_traitsIcESaIcEEES5_EvPT_RKT0_
FNDA:71,_ZSt8_DestroyINSt7__cxx1112basic_stringIcSt11char_traitsIcESaIcEEEEvPT_
FNDA:16,_ZNSt12_Destroy_auxILb0EE9__destroyIPNSt7__cxx1112basic_stringIcSt11char_traitsIcESaIcEEEEEvT_S9_
FNDA:1,_ZNSt12_Destroy_auxILb1EE9__destroyIP8GLVertexEEvT_S4_
FNDA:3,_ZNSt12_Destroy_auxILb1EE9__destroyIP2M4EEvT_S4_
FNDA:1,_ZNSt12_Destroy_auxILb1EE9__destroyIPP14TransformationEEvT_S5_
FNDA:1,_ZNSt12_Destroy_auxILb1EE9__destroyIPP8StlShapeEEvT_S5_
FNDA:18,_ZNSt12_Destroy_auxILb1EE9__destroyIP8triangleEEvT_S4_
FNDA:11,_ZNSt12_Destroy_auxILb1EE9__destroyIN9__gnu_cxx17__normal_iteratorIPhSt6vectorIhSaIhEEEEEEvT_S9_
FNDA:33,_ZNSt12_Destroy_auxILb1EE9__destroyIPhEEvT_S3_
FNDA:16,_ZSt8_DestroyIPNSt7__cxx1112basic_stringIcSt11char_traitsIcESaIcEEEEvT_S7_
FNDA:1,_ZSt8_DestroyIP8GLVertexEvT_S2_
FNDA:3,_ZSt8_DestroyIP2M4EvT_S2_
FNDA:1,_ZSt8_DestroyIPP14TransformationEvT_S3_
FNDA:1,_ZSt8_DestroyIPP8StlShapeEvT_S3_
FNDA:18,_ZSt8_DestroyIP8triangleEvT_S2_
FNDA:11,_ZSt8_DestroyIN9__gnu_cxx17__normal_iteratorIPhSt6vectorIhSaIhEEEEEvT_S7_
FNDA:33,_ZSt8_DestroyIPhEvT_S1_
FNDA:16,_ZSt8_DestroyIPNSt7__cxx1112basic_stringIcSt11char_traitsIcESaIcEEES5_EvT_S7_RSaIT0_E
FNDA:1,_ZSt8_DestroyIP8GLVertexS0_EvT_S2_RSaIT0_E
FNDA:3,_ZSt8_DestroyIP2M4S0_EvT_S2_RSaIT0_E
FNDA:1,_ZSt8_DestroyIPP14TransformationS1_EvT_S3_RSaIT0_E
FNDA:1,_ZSt8_DestroyIPP8StlShapeS1_EvT_S3_RSaIT0_E
FNDA:18,_ZSt8_DestroyIP8triangleS0_EvT_S2_RSaIT0_E
FNDA:11,_ZSt8_DestroyIN9__gnu_cxx17__normal_iteratorIPhSt6vectorIhSaIhEEEEhEvT_S7_RSaIT0_E
FNDA:33,_ZSt8_DestroyIPhhEvT_S1_RSaIT0_E
FNF:27
FNH:27
DA:79,70
DA:83,70
DA:84,70
DA:92,71
DA:93,71
DA:100,87
DA:102,158
DA:103,71
DA:104,16
DA:112,68
DA:122,84
DA:126,84
DA:128,84
DA:148,84
DA:151,84
DA:152,84
LF:16
LH:16
end_of_record
SF:/usr/include/c++/5/bits/stl_function.h
FN:386,_ZNKSt4lessIiEclERKiS2_
FN:891,_ZNKSt10_Select1stISt4pairIKi9GLTextureEEclERKS3_
FNDA:2,_ZNKSt4lessIiEclERKiS2_
FNDA:2,_ZNKSt10_Select1stISt4pairIKi9GLTextureEEclERKS3_
FNF:2
FNH:2
DA:386,2
DA:387,2
DA:891,2
DA:892,2
LF:4
LH:4
end_of_record
SF:/usr/include/c++/5/bits/stl_iterator.h
FN:740,_ZN9__gnu_cxx17__normal_iteratorIP8GLVertexSt6vectorIS1_SaIS1_EEEC2ERKS2_
FN:740,_ZN9__gnu_cxx17__normal_iteratorIPhSt6vectorIhSaIhEEEC2ERKS1_
FN:740,_ZN9__gnu_cxx17__normal_iteratorIPKhSt6vectorIhSaIhEEEC2ERKS2_
FN:740,_ZN9__gnu_cxx17__normal_iteratorIPP14TransformationSt6vectorIS2_SaIS2_EEEC2ERKS3_
FN:740,_ZN9__gnu_cxx17__normal_iteratorIP8triangleSt6vectorIS1_SaIS1_EEEC2ERKS2_
FN:740,_ZN9__gnu_cxx17__normal_iteratorIPNSt7__cxx1112basic_stringIcSt11char_traitsIcESaIcEEESt6vectorIS6_SaIS6_EEEC2ERKS7_
FN:740,_ZN9__gnu_cxx17__normal_iteratorIPP8StlShapeSt6vectorIS2_SaIS2_EEEC2ERKS3_
FN:740,_ZN9__gnu_cxx17__normal_iteratorIP2M4St6vectorIS1_SaIS1_EEEC2ERKS2_
FN:753,_ZNK9__gnu_cxx17__normal_iteratorIP8triangleSt6vectorIS1_SaIS1_EEEdeEv
FN:753,_ZNK9__gnu_cxx17__normal_iteratorIPNSt7__cxx1112basic_stringIcSt11char_traitsIcESaIcEEESt6vectorIS6_SaIS6_EEEdeEv
FN:805,_ZNK9__gnu_cxx17__normal_iteratorIP8triangleSt6vectorIS1_SaIS1_EEE4baseEv
FN:805,_ZNK9__gnu_cxx17__normal_iteratorIPP8StlShapeSt6vectorIS2_SaIS2_EEE4baseEv
FN:805,_ZNK9__gnu_cxx17__normal_iteratorIPNSt7__cxx1112basic_stringIcSt11char_traitsIcESaIcEEESt6vectorIS6_SaIS6_EEE4baseEv
FN:805,_ZNK9__gnu_cxx17__normal_iteratorIPP14TransformationSt6vectorIS2_SaIS2_EEE4baseEv
FN:805,_ZNK9__gnu_cxx17__normal_iteratorIP2M4St6vectorIS1_SaIS1_EEE4baseEv
FN:805,_ZNK9__gnu_cxx17__normal_iteratorIP8GLVertexSt6vectorIS1_SaIS1_EEE4baseEv
FN:805,_ZNK9__gnu_cxx17__normal_iteratorIPhSt6vectorIhSaIhEEE4baseEv
FN:805,_ZNK9__gnu_cxx17__normal_iteratorIPKhSt6vectorIhSaIhEEE4baseEv
FN:923,_ZN9__gnu_cxxmiIPNSt7__cxx1112basic_stringIcSt11char_traitsIcESaIcEEESt6vectorIS6_SaIS6_EEEENS_17__normal_iteratorIT_T0_E15difference_typeERKSE_SH_
FN:923,_ZN9__gnu_cxxmiIP8GLVertexSt6vectorIS1_SaIS1_EEEENS_17__normal_iteratorIT_T0_E15difference_typeERKS9_SC_
FN:923,_ZN9__gnu_cxxmiIPP8StlShapeSt6vectorIS2_SaIS2_EEEENS_17__normal_iteratorIT_T0_E15difference_typeERKSA_SD_
FN:923,_ZN9__gnu_cxxmiIP2M4St6vectorIS1_SaIS1_EEEENS_17__normal_iteratorIT_T0_E15difference_typeERKS9_SC_
FN:923,_ZN9__gnu_cxxmiIP8triangleSt6vectorIS1_SaIS1_EEEENS_17__normal_iteratorIT_T0_E15difference_typeERKS9_SC_
FN:923,_ZN9__gnu_cxxmiIPhSt6vectorIhSaIhEEEENS_17__normal_iteratorIT_T0_E15difference_typeERKS8_SB_
FN:923,_ZN9__gnu_cxxmiIPP14TransformationSt6vectorIS2_SaIS2_EEEENS_17__normal_iteratorIT_T0_E15difference_typeERKSA_SD_
FNDA:2,_ZN9__gnu_cxx17__normal_iteratorIPP14TransformationSt6vectorIS2_SaIS2_EEEC2ERKS3_
FNDA:2,_ZN9__gnu_cxx17__normal_iteratorIPP8StlShapeSt6vectorIS2_SaIS2_EEEC2ERKS3_
FNDA:36,_ZN9__gnu_cxx17__normal_iteratorIP8triangleSt6vectorIS1_SaIS1_EEEC2ERKS2_
FNDA:33,_ZN9__gnu_cxx17__normal_iteratorIPhSt6vectorIhSaIhEEEC2ERKS1_
FNDA:66,_ZN9__gnu_cxx17__normal_iteratorIPKhSt6vectorIhSaIhEEEC2ERKS2_
FNDA:2,_ZN9__gnu_cxx17__normal_iteratorIP8GLVertexSt6vectorIS1_SaIS1_EEEC2ERKS2_
FNDA:6,_ZN9__gnu_cxx17__normal_iteratorIP2M4St6vectorIS1_SaIS1_EEEC2ERKS2_
FNDA:18,_ZN9__gnu_cxx17__normal_iteratorIPNSt7__cxx1112basic_stringIcSt11char_traitsIcESaIcEEESt6vectorIS6_SaIS6_EEEC2ERKS7_
FNDA:0,_ZNK9__gnu_cxx17__normal_iteratorIP8triangleSt6vectorIS1_SaIS1_EEEdeEv
FNDA:0,_ZNK9__gnu_cxx17__normal_iteratorIPNSt7__cxx1112basic_stringIcSt11char_traitsIcESaIcEEESt6vectorIS6_SaIS6_EEEdeEv
FNDA:66,_ZNK9__gnu_cxx17__normal_iteratorIPKhSt6vectorIhSaIhEEE4baseEv
FNDA:4,_ZNK9__gnu_cxx17__normal_iteratorIPP14TransformationSt6vectorIS2_SaIS2_EEE4baseEv
FNDA:4,_ZNK9__gnu_cxx17__normal_iteratorIPP8StlShapeSt6vectorIS2_SaIS2_EEE4baseEv
FNDA:11,_ZNK9__gnu_cxx17__normal_iteratorIPhSt6vectorIhSaIhEEE4baseEv
FNDA:4,_ZNK9__gnu_cxx17__normal_iteratorIP8GLVertexSt6vectorIS1_SaIS1_EEE4baseEv
FNDA:12,_ZNK9__gnu_cxx17__normal_iteratorIP2M4St6vectorIS1_SaIS1_EEE4baseEv
FNDA:72,_ZNK9__gnu_cxx17__normal_iteratorIP8triangleSt6vectorIS1_SaIS1_EEE4baseEv
FNDA:36,_ZNK9__gnu_cxx17__normal_iteratorIPNSt7__cxx1112basic_stringIcSt11char_traitsIcESaIcEEESt6vectorIS6_SaIS6_EEE4baseEv
FNDA:1,_ZN9__gnu_cxxmiIPP14TransformationSt6vectorIS2_SaIS2_EEEENS_17__normal_iteratorIT_T0_E15difference_typeERKSA_SD_
FNDA:1,_ZN9__gnu_cxxmiIPP8StlShapeSt6vectorIS2_SaIS2_EEEENS_17__normal_iteratorIT_T0_E15difference_typeERKSA_SD_
FNDA:0,_ZN9__gnu_cxxmiIPhSt6vectorIhSaIhEEEENS_17__normal_iteratorIT_T0_E15difference_typeERKS8_SB_
FNDA:1,_ZN9__gnu_cxxmiIP8GLVertexSt6vectorIS1_SaIS1_EEEENS_17__normal_iteratorIT_T0_E15difference_typeERKS9_SC_
FNDA:3,_ZN9__gnu_cxxmiIP2M4St6vectorIS1_SaIS1_EEEENS_17__normal_iteratorIT_T0_E15difference_typeERKS9_SC_
FNDA:18,_ZN9__gnu_cxxmiIP8triangleSt6vectorIS1_SaIS1_EEEENS_17__normal_iteratorIT_T0_E15difference_typeERKS9_SC_
FNDA:9,_ZN9__gnu_cxxmiIPNSt7__cxx1112basic_stringIcSt11char_traitsIcESaIcEEESt6vectorIS6_SaIS6_EEEENS_17__normal_iteratorIT_T0_E15difference_typeERKSE_SH_
FNF:25
FNH:22
DA:740,165
DA:741,165
DA:753,0
DA:754,0
DA:805,209
DA:806,209
DA:923,33
DA:926,33
LF:8
LH:6
end_of_record
SF:/usr/include/c++/5/bits/stl_iterator_base_types.h
FN:215,_ZNSt10_Iter_baseIPNSt7__cxx1112basic_stringIcSt11char_traitsIcESaIcEEELb0EE7_S_baseES6_
FN:215,_ZNSt10_Iter_baseIPP8StlShapeLb0EE7_S_baseES2_
FN:215,_ZNSt10_Iter_baseIP2M4Lb0EE7_S_baseES1_
FN:215,_ZNSt10_Iter_baseIN9__gnu_cxx17__normal_iteratorIPKhSt6vectorIhSaIhEEEELb0EE7_S_baseES7_
FN:215,_ZNSt10_Iter_baseIP8GLVertexLb0EE7_S_baseES1_
FN:215,_ZNSt10_Iter_baseIP8triangleLb0EE7_S_baseES1_
FN:215,_ZNSt10_Iter_baseIPhLb0EE7_S_baseES0_
FN:215,_ZNSt10_Iter_baseIPP14TransformationLb0EE7_S_baseES2_
FN:223,_ZNSt10_Iter_baseIN9__gnu_cxx17__normal_iteratorIPKhSt6vectorIhSaIhEEEELb1EE7_S_baseES7_
FN:223,_ZNSt10_Iter_baseIN9__gnu_cxx17__normal_iteratorIPhSt6vectorIhSaIhEEEELb1EE7_S_baseES6_
FNDA:11,_ZNSt10_Iter_baseIPP14TransformationLb0EE7_S_baseES2_
FNDA:11,_ZNSt10_Iter_baseIPP8StlShapeLb0EE7_S_baseES2_
FNDA:11,_ZNSt10_Iter_baseIP8GLVertexLb0EE7_S_baseES1_
FNDA:0,_ZNSt10_Iter_baseIP2M4Lb0EE7_S_baseES1_
FNDA:180,_ZNSt10_Iter_baseIP8triangleLb0EE7_S_baseES1_
FNDA:0,_ZNSt10_Iter_baseIPNSt7__cxx1112basic_stringIcSt11char_traitsIcESaIcEEELb0EE7_S_baseES6_
FNDA:22,_ZNSt10_Iter_baseIPhLb0EE7_S_baseES0_
FNDA:66,_ZNSt10_Iter_baseIN9__gnu_cxx17__normal_iteratorIPKhSt6vectorIhSaIhEEEELb0EE7_S_baseES7_
FNDA:11,_ZNSt10_Iter_baseIN9__gnu_cxx17__normal_iteratorIPhSt6vectorIhSaIhEEEELb1EE7_S_baseES6_
FNDA:66,_ZNSt10_Iter_baseIN9__gnu_cxx17__normal_iteratorIPKhSt6vectorIhSaIhEEEELb1EE7_S_baseES7_
FNF:10
FNH:8
DA:215,301
DA:216,301
DA:223,77
DA:224,77
LF:4
LH:4
end_of_record
SF:/usr/include/c++/5/bits/stl_map.h
FN:96,_ZNSt3mapIi9GLTextureSt4lessIiESaISt4pairIKiS0_EEED2Ev
FN:162,_ZNSt3mapIi9GLTextureSt4lessIiESaISt4pairIKiS0_EEEC2Ev
FN:356,_ZNSt3mapIi9GLTextureSt4lessIiESaISt4pairIKiS0_EEE3endEv
FN:474,_ZNSt3mapIi9GLTextureSt4lessIiESaISt4pairIKiS0_EEEixERS4_
FN:664,_ZNSt3mapIi9GLTextureSt4lessIiESaISt4pairIKiS0_EEE6insertESt17_Rb_tree_iteratorIS5_ERKS5_
FN:818,_ZNKSt3mapIi9GLTextureSt4lessIiESaISt4pairIKiS0_EEE8key_compEv
FN:845,_ZNSt3mapIi9GLTextureSt4lessIiESaISt4pairIKiS0_EEE4findERS4_
FN:915,_ZNSt3mapIi9GLTextureSt4lessIiESaISt4pairIKiS0_EEE11lower_boundERS4_
FNDA:0,_ZNSt3mapIi9GLTextureSt4lessIiESaISt4pairIKiS0_EEED2Ev
FNDA:1,_ZNSt3mapIi9GLTextureSt4lessIiESaISt4pairIKiS0_EEEC2Ev
FNDA:3,_ZNSt3mapIi9GLTextureSt4lessIiESaISt4pairIKiS0_EEE3endEv
FNDA:2,_ZNSt3mapIi9GLTextureSt4lessIiESaISt4pairIKiS0_EEEixERS4_
FNDA:1,_ZNSt3mapIi9GLTextureSt4lessIiESaISt4pairIKiS0_EEE6insertESt17_Rb_tree_iteratorIS5_ERKS5_
FNDA:1,_ZNKSt3mapIi9GLTextureSt4lessIiESaISt4pairIKiS0_EEE8key_compEv
FNDA:1,_ZNSt3mapIi9GLTextureSt4lessIiESaISt4pairIKiS0_EEE4findERS4_
FNDA:2,_ZNSt3mapIi9GLTextureSt4lessIiESaISt4pairIKiS0_EEE11lower_boundERS4_
FNF:8
FNH:7
DA:96,0
DA:162,1
DA:166,1
DA:356,3
DA:357,3
DA:474,2
DA:479,2
DA:481,2
DA:487,1
DA:489,2
DA:664,1
DA:666,1
DA:818,1
DA:819,1
DA:845,1
DA:846,1
DA:915,2
DA:916,2
LF:18
LH:17
end_of_record
SF:/usr/include/c++/5/bits/stl_pair.h
FN:96,_ZNSt4pairIKi9GLTextureED2Ev
FN:96,_ZNSt4pairIKi9GLTextureEC2ERKS2_
FN:112,_ZNSt4pairIKi9GLTextureEC2ERS0_RKS1_
FN:112,_ZNSt4pairIPSt18_Rb_tree_node_baseS1_EC2ERKS1_S4_
FNDA:1,_ZNSt4pairIKi9GLTextureEC2ERKS2_
FNDA:1,_ZNSt4pairIKi9GLTextureED2Ev
FNDA:1,_ZNSt4pairIPSt18_Rb_tree_node_baseS1_EC2ERKS1_S4_
FNDA:1,_ZNSt4pairIKi9GLTextureEC2ERS0_RKS1_
FNF:4
FNH:4
DA:96,2
DA:112,2
DA:113,2
LF:3
LH:3
end_of_record
SF:/usr/include/c++/5/bits/stl_tree.h
FN:142,_ZNSt13_Rb_tree_nodeISt4pairIKi9GLTextureEE9_M_valptrEv
FN:146,_ZNKSt13_Rb_tree_nodeISt4pairIKi9GLTextureEE9_M_valptrEv
FN:191,_ZNSt17_Rb_tree_iteratorISt4pairIKi9GLTextureEEC2EPSt18_Rb_tree_node_base
FN:195,_ZNKSt17_Rb_tree_iteratorISt4pairIKi9GLTextureEEdeEv
FN:203,_ZNSt17_Rb_tree_iteratorISt4pairIKi9GLTextureEEppEv
FN:218,_ZNSt17_Rb_tree_iteratorISt4pairIKi9GLTextureEEmmEv
FN:233,_ZNKSt17_Rb_tree_iteratorISt4pairIKi9GLTextureEEeqERKS4_
FN:237,_ZNKSt17_Rb_tree_iteratorISt4pairIKi9GLTextureEEneERKS4_
FN:266,_ZNSt23_Rb_tree_const_iteratorISt4pairIKi9GLTextureEEC2ERKSt17_Rb_tree_iteratorIS3_E
FN:270,_ZNKSt23_Rb_tree_const_iteratorISt4pairIKi9GLTextureEE13_M_const_castEv
FN:449,_ZNSt8_Rb_treeIiSt4pairIKi9GLTextureESt10_Select1stIS3_ESt4lessIiESaIS3_EE11_Alloc_nodeC2ERS9_
FN:455,_ZNKSt8_Rb_treeIiSt4pairIKi9GLTextureESt10_Select1stIS3_ESt4lessIiESaIS3_EE11_Alloc_nodeclIS3_EEPSt13_Rb_tree_nodeIS3_ERKT_
FN:477,_ZNSt8_Rb_treeIiSt4pairIKi9GLTextureESt10_Select1stIS3_ESt4lessIiESaIS3_EE21_M_get_Node_allocatorEv
FN:481,_ZNKSt8_Rb_treeIiSt4pairIKi9GLTextureESt10_Select1stIS3_ESt4lessIiESaIS3_EE21_M_get_Node_allocatorEv
FN:485,_ZNKSt8_Rb_treeIiSt4pairIKi9GLTextureESt10_Select1stIS3_ESt4lessIiESaIS3_EE13get_allocatorEv
FN:490,_ZNSt8_Rb_treeIiSt4pairIKi9GLTextureESt10_Select1stIS3_ESt4lessIiESaIS3_EE11_M_get_nodeEv
FN:494,_ZNSt8_Rb_treeIiSt4pairIKi9GLTextureESt10_Select1stIS3_ESt4lessIiESaIS3_EE11_M_put_nodeEPSt13_Rb_tree_nodeIS3_E
FN:499,_ZNSt8_Rb_treeIiSt4pairIKi9GLTextureESt10_Select1stIS3_ESt4lessIiESaIS3_EE17_M_construct_nodeEPSt13_Rb_tree_nodeIS3_ERKS3_
FN:511,_ZNSt8_Rb_treeIiSt4pairIKi9GLTextureESt10_Select1stIS3_ESt4lessIiESaIS3_EE14_M_create_nodeERKS3_
FN:519,_ZNSt8_Rb_treeIiSt4pairIKi9GLTextureESt10_Select1stIS3_ESt4lessIiESaIS3_EE15_M_destroy_nodeEPSt13_Rb_tree_nodeIS3_E
FN:559,_ZNSt8_Rb_treeIiSt4pairIKi9GLTextureESt10_Select1stIS3_ESt4lessIiESaIS3_EE12_M_drop_nodeEPSt13_Rb_tree_nodeIS3_E
FN:580,_ZNSt8_Rb_treeIiSt4pairIKi9GLTextureESt10_Select1stIS3_ESt4lessIiESaIS3_EE13_Rb_tree_implIS7_Lb0EED2Ev
FN:586,_ZNSt8_Rb_treeIiSt4pairIKi9GLTextureESt10_Select1stIS3_ESt4lessIiESaIS3_EE13_Rb_tree_implIS7_Lb0EEC2Ev
FN:614,_ZNSt8_Rb_treeIiSt4pairIKi9GLTextureESt10_Select1stIS3_ESt4lessIiESaIS3_EE13_Rb_tree_implIS7_Lb0EE13_M_initializeEv
FN:635,_ZNSt8_Rb_treeIiSt4pairIKi9GLTextureESt10_Select1stIS3_ESt4lessIiESaIS3_EE11_M_leftmostEv
FN:643,_ZNSt8_Rb_treeIiSt4pairIKi9GLTextureESt10_Select1stIS3_ESt4lessIiESaIS3_EE12_M_rightmostEv
FN:651,_ZNSt8_Rb_treeIiSt4pairIKi9GLTextureESt10_Select1stIS3_ESt4lessIiESaIS3_EE8_M_beginEv
FN:662,_ZNSt8_Rb_treeIiSt4pairIKi9GLTextureESt10_Select1stIS3_ESt4lessIiESaIS3_EE6_M_endEv
FN:670,_ZNSt8_Rb_treeIiSt4pairIKi9GLTextureESt10_Select1stIS3_ESt4lessIiESaIS3_EE8_S_valueEPKSt13_Rb_tree_nodeIS3_E
FN:674,_ZNSt8_Rb_treeIiSt4pairIKi9GLTextureESt10_Select1stIS3_ESt4lessIiESaIS3_EE6_S_keyEPKSt13_Rb_tree_nodeIS3_E
FN:678,_ZNSt8_Rb_treeIiSt4pairIKi9GLTextureESt10_Select1stIS3_ESt4lessIiESaIS3_EE7_S_leftEPSt18_Rb_tree_node_base
FN:686,_ZNSt8_Rb_treeIiSt4pairIKi9GLTextureESt10_Select1stIS3_ESt4lessIiESaIS3_EE8_S_rightEPSt18_Rb_tree_node_base
FN:694,_ZNSt8_Rb_treeIiSt4pairIKi9GLTextureESt10_Select1stIS3_ESt4lessIiESaIS3_EE8_S_valueEPKSt18_Rb_tree_node_base
FN:698,_ZNSt8_Rb_treeIiSt4pairIKi9GLTextureESt10_Select1stIS3_ESt4lessIiESaIS3_EE6_S_keyEPKSt18_Rb_tree_node_base
FN:807,_ZNSt8_Rb_treeIiSt4pairIKi9GLTextureESt10_Select1stIS3_ESt4lessIiESaIS3_EEC2Ev
FN:857,_ZNSt8_Rb_treeIiSt4pairIKi9GLTextureESt10_Select1stIS3_ESt4lessIiESaIS3_EED2Ev
FN:865,_ZNKSt8_Rb_treeIiSt4pairIKi9GLTextureESt10_Select1stIS3_ESt4lessIiESaIS3_EE8key_compEv
FN:869,_ZNSt8_Rb_treeIiSt4pairIKi9GLTextureESt10_Select1stIS3_ESt4lessIiESaIS3_EE5beginEv
FN:877,_ZNSt8_Rb_treeIiSt4pairIKi9GLTextureESt10_Select1stIS3_ESt4lessIiESaIS3_EE3endEv
FN:905,_ZNKSt8_Rb_treeIiSt4pairIKi9GLTextureESt10_Select1stIS3_ESt4lessIiESaIS3_EE4sizeEv
FN:981,_ZNSt8_Rb_treeIiSt4pairIKi9GLTextureESt10_Select1stIS3_ESt4lessIiESaIS3_EE17_M_insert_unique_ESt23_Rb_tree_const_iteratorIS3_ERKS3_
FN:1090,_ZNSt8_Rb_treeIiSt4pairIKi9GLTextureESt10_Select1stIS3_ESt4lessIiESaIS3_EE11lower_boundERS1_
FN:1496,_ZNSt8_Rb_treeIiSt4pairIKi9GLTextureESt10_Select1stIS3_ESt4lessIiESaIS3_EE10_M_insert_INS9_11_Alloc_nodeEEESt17_Rb_tree_iteratorIS3_EPSt18_Rb_tree_node_baseSF_RKS3_RT_
FN:1606,_ZNSt8_Rb_treeIiSt4pairIKi9GLTextureESt10_Select1stIS3_ESt4lessIiESaIS3_EE8_M_eraseEPSt13_Rb_tree_nodeIS3_E
FN:1623,_ZNSt8_Rb_treeIiSt4pairIKi9GLTextureESt10_Select1stIS3_ESt4lessIiESaIS3_EE14_M_lower_boundEPSt13_Rb_tree_nodeIS3_ESC_RS1_
FN:1800,_ZNSt8_Rb_treeIiSt4pairIKi9GLTextureESt10_Select1stIS3_ESt4lessIiESaIS3_EE24_M_get_insert_unique_posERS1_
FN:1902,_ZNSt8_Rb_treeIiSt4pairIKi9GLTextureESt10_Select1stIS3_ESt4lessIiESaIS3_EE29_M_get_insert_hint_unique_posESt23_Rb_tree_const_iteratorIS3_ERS1_
FN:1963,_ZNSt8_Rb_treeIiSt4pairIKi9GLTextureESt10_Select1stIS3_ESt4lessIiESaIS3_EE17_M_insert_unique_INS9_11_Alloc_nodeEEESt17_Rb_tree_iteratorIS3_ESt23_Rb_tree_const_iteratorIS3_ERKS3_RT_
FN:2292,_ZNSt8_Rb_treeIiSt4pairIKi9GLTextureESt10_Select1stIS3_ESt4lessIiESaIS3_EE4findERS1_
FNDA:4,_ZNSt13_Rb_tree_nodeISt4pairIKi9GLTextureEE9_M_valptrEv
FNDA:1,_ZNKSt13_Rb_tree_nodeISt4pairIKi9GLTextureEE9_M_valptrEv
FNDA:12,_ZNSt17_Rb_tree_iteratorISt4pairIKi9GLTextureEEC2EPSt18_Rb_tree_node_base
FNDA:3,_ZNKSt17_Rb_tree_iteratorISt4pairIKi9GLTextureEEdeEv
FNDA:0,_ZNSt17_Rb_tree_iteratorISt4pairIKi9GLTextureEEppEv
FNDA:0,_ZNSt17_Rb_tree_iteratorISt4pairIKi9GLTextureEEmmEv
FNDA:4,_ZNKSt17_Rb_tree_iteratorISt4pairIKi9GLTextureEEeqERKS4_
FNDA:1,_ZNKSt17_Rb_tree_iteratorISt4pairIKi9GLTextureEEneERKS4_
FNDA:1,_ZNSt23_Rb_tree_const_iteratorISt4pairIKi9GLTextureEEC2ERKSt17_Rb_tree_iteratorIS3_E
FNDA:1,_ZNKSt23_Rb_tree_const_iteratorISt4pairIKi9GLTextureEE13_M_const_castEv
FNDA:1,_ZNSt8_Rb_treeIiSt4pairIKi9GLTextureESt10_Select1stIS3_ESt4lessIiESaIS3_EE11_Alloc_nodeC2ERS9_
FNDA:1,_ZNKSt8_Rb_treeIiSt4pairIKi9GLTextureESt10_Select1stIS3_ESt4lessIiESaIS3_EE11_Alloc_nodeclIS3_EEPSt13_Rb_tree_nodeIS3_ERKT_
FNDA:1,_ZNSt8_Rb_treeIiSt4pairIKi9GLTextureESt10_Select1stIS3_ESt4lessIiESaIS3_EE21_M_get_Node_allocatorEv
FNDA:1,_ZNKSt8_Rb_treeIiSt4pairIKi9GLTextureESt10_Select1stIS3_ESt4lessIiESaIS3_EE21_M_get_Node_allocatorEv
FNDA:1,_ZNKSt8_Rb_treeIiSt4pairIKi9GLTextureESt10_Select1stIS3_ESt4lessIiESaIS3_EE13get_allocatorEv
FNDA:1,_ZNSt8_Rb_treeIiSt4pairIKi9GLTextureESt10_Select1stIS3_ESt4lessIiESaIS3_EE11_M_get_nodeEv
FNDA:0,_ZNSt8_Rb_treeIiSt4pairIKi9GLTextureESt10_Select1stIS3_ESt4lessIiESaIS3_EE11_M_put_nodeEPSt13_Rb_tree_nodeIS3_E
FNDA:1,_ZNSt8_Rb_treeIiSt4pairIKi9GLTextureESt10_Select1stIS3_ESt4lessIiESaIS3_EE17_M_construct_nodeEPSt13_Rb_tree_nodeIS3_ERKS3_
FNDA:1,_ZNSt8_Rb_treeIiSt4pairIKi9GLTextureESt10_Select1stIS3_ESt4lessIiESaIS3_EE14_M_create_nodeERKS3_
FNDA:0,_ZNSt8_Rb_treeIiSt4pairIKi9GLTextureESt10_Select1stIS3_ESt4lessIiESaIS3_EE15_M_destroy_nodeEPSt13_Rb_tree_nodeIS3_E
FNDA:0,_ZNSt8_Rb_treeIiSt4pairIKi9GLTextureESt10_Select1stIS3_ESt4lessIiESaIS3_EE12_M_drop_nodeEPSt13_Rb_tree_nodeIS3_E
FNDA:0,_ZNSt8_Rb_treeIiSt4pairIKi9GLTextureESt10_Select1stIS3_ESt4lessIiESaIS3_EE13_Rb_tree_implIS7_Lb0EED2Ev
FNDA:1,_ZNSt8_Rb_treeIiSt4pairIKi9GLTextureESt10_Select1stIS3_ESt4lessIiESaIS3_EE13_Rb_tree_implIS7_Lb0EEC2Ev
FNDA:1,_ZNSt8_Rb_treeIiSt4pairIKi9GLTextureESt10_Select1stIS3_ESt4lessIiESaIS3_EE13_Rb_tree_implIS7_Lb0EE13_M_initializeEv
FNDA:0,_ZNSt8_Rb_treeIiSt4pairIKi9GLTextureESt10_Select1stIS3_ESt4lessIiESaIS3_EE11_M_leftmostEv
FNDA:0,_ZNSt8_Rb_treeIiSt4pairIKi9GLTextureESt10_Select1stIS3_ESt4lessIiESaIS3_EE12_M_rightmostEv
FNDA:4,_ZNSt8_Rb_treeIiSt4pairIKi9GLTextureESt10_Select1stIS3_ESt4lessIiESaIS3_EE8_M_beginEv
FNDA:6,_ZNSt8_Rb_treeIiSt4pairIKi9GLTextureESt10_Select1stIS3_ESt4lessIiESaIS3_EE6_M_endEv
FNDA:1,_ZNSt8_Rb_treeIiSt4pairIKi9GLTextureESt10_Select1stIS3_ESt4lessIiESaIS3_EE8_S_valueEPKSt13_Rb_tree_nodeIS3_E
FNDA:1,_ZNSt8_Rb_treeIiSt4pairIKi9GLTextureESt10_Select1stIS3_ESt4lessIiESaIS3_EE6_S_keyEPKSt13_Rb_tree_nodeIS3_E
FNDA:1,_ZNSt8_Rb_treeIiSt4pairIKi9GLTextureESt10_Select1stIS3_ESt4lessIiESaIS3_EE7_S_leftEPSt18_Rb_tree_node_base
FNDA:0,_ZNSt8_Rb_treeIiSt4pairIKi9GLTextureESt10_Select1stIS3_ESt4lessIiESaIS3_EE8_S_rightEPSt18_Rb_tree_node_base
FNDA:0,_ZNSt8_Rb_treeIiSt4pairIKi9GLTextureESt10_Select1stIS3_ESt4lessIiESaIS3_EE8_S_valueEPKSt18_Rb_tree_node_base
FNDA:0,_ZNSt8_Rb_treeIiSt4pairIKi9GLTextureESt10_Select1stIS3_ESt4lessIiESaIS3_EE6_S_keyEPKSt18_Rb_tree_node_base
FNDA:1,_ZNSt8_Rb_treeIiSt4pairIKi9GLTextureESt10_Select1stIS3_ESt4lessIiESaIS3_EEC2Ev
FNDA:0,_ZNSt8_Rb_treeIiSt4pairIKi9GLTextureESt10_Select1stIS3_ESt4lessIiESaIS3_EED2Ev
FNDA:1,_ZNKSt8_Rb_treeIiSt4pairIKi9GLTextureESt10_Select1stIS3_ESt4lessIiESaIS3_EE8key_compEv
FNDA:1,_ZNSt8_Rb_treeIiSt4pairIKi9GLTextureESt10_Select1stIS3_ESt4lessIiESaIS3_EE5beginEv
FNDA:5,_ZNSt8_Rb_treeIiSt4pairIKi9GLTextureESt10_Select1stIS3_ESt4lessIiESaIS3_EE3endEv
FNDA:1,_ZNKSt8_Rb_treeIiSt4pairIKi9GLTextureESt10_Select1stIS3_ESt4lessIiESaIS3_EE4sizeEv
FNDA:1,_ZNSt8_Rb_treeIiSt4pairIKi9GLTextureESt10_Select1stIS3_ESt4lessIiESaIS3_EE17_M_insert_unique_ESt23_Rb_tree_const_iteratorIS3_ERKS3_
FNDA:2,_ZNSt8_Rb_treeIiSt4pairIKi9GLTextureESt10_Select1stIS3_ESt4lessIiESaIS3_EE11lower_boundERS1_
FNDA:1,_ZNSt8_Rb_treeIiSt4pairIKi9GLTextureESt10_Select1stIS3_ESt4lessIiESaIS3_EE10_M_insert_INS9_11_Alloc_nodeEEESt17_Rb_tree_iteratorIS3_EPSt18_Rb_tree_node_baseSF_RKS3_RT_
FNDA:0,_ZNSt8_Rb_treeIiSt4pairIKi9GLTextureESt10_Select1stIS3_ESt4lessIiESaIS3_EE8_M_eraseEPSt13_Rb_tree_nodeIS3_E
FNDA:3,_ZNSt8_Rb_treeIiSt4pairIKi9GLTextureESt10_Select1stIS3_ESt4lessIiESaIS3_EE14_M_lower_boundEPSt13_Rb_tree_nodeIS3_ESC_RS1_
FNDA:1,_ZNSt8_Rb_treeIiSt4pairIKi9GLTextureESt10_Select1stIS3_ESt4lessIiESaIS3_EE24_M_get_insert_unique_posERS1_
FNDA:1,_ZNSt8_Rb_treeIiSt4pairIKi9GLTextureESt10_Select1stIS3_ESt4lessIiESaIS3_EE29_M_get_insert_hint_unique_posESt23_Rb_tree_const_iteratorIS3_ERS1_
FNDA:1,_ZNSt8_Rb_treeIiSt4pairIKi9GLTextureESt10_Select1stIS3_ESt4lessIiESaIS3_EE17_M_insert_unique_INS9_11_Alloc_nodeEEESt17_Rb_tree_iteratorIS3_ESt23_Rb_tree_const_iteratorIS3_ERKS3_RT_
FNDA:1,_ZNSt8_Rb_treeIiSt4pairIKi9GLTextureESt10_Select1stIS3_ESt4lessIiESaIS3_EE4findERS1_
FNF:49
FNH:36
DA:142,4
DA:143,4
DA:146,1
DA:147,1
DA:191,12
DA:192,12
DA:195,3
DA:196,3
DA:203,0
DA:205,0
DA:206,0
DA:218,0
DA:220,0
DA:221,0
DA:233,4
DA:234,4
DA:237,1
DA:238,1
DA:266,1
DA:267,1
DA:270,1
DA:271,1
DA:449,1
DA:450,1
DA:455,1
DA:459,1
DA:477,1
DA:478,1
DA:481,1
DA:482,1
DA:485,1
DA:486,1
DA:490,1
DA:491,1
DA:494,0
DA:495,0
DA:499,1
DA:502,1
DA:503,0
DA:505,0
DA:506,0
DA:508,1
DA:511,1
DA:513,1
DA:514,1
DA:515,1
DA:519,0
DA:520,0
DA:559,0
DA:561,0
DA:562,0
DA:563,0
DA:580,0
DA:586,1
DA:588,1
DA:589,1
DA:614,1
DA:616,1
DA:617,1
DA:618,1
DA:619,1
DA:620,1
DA:635,0
DA:636,0
DA:643,0
DA:644,0
DA:651,4
DA:652,4
DA:662,6
DA:663,6
DA:670,1
DA:671,1
DA:674,1
DA:675,1
DA:678,1
DA:679,1
DA:686,0
DA:687,0
DA:694,0
DA:695,0
DA:698,0
DA:699,0
DA:807,1
DA:857,0
DA:858,0
DA:865,1
DA:866,1
DA:869,1
DA:870,1
DA:877,5
DA:878,5
DA:905,1
DA:906,1
DA:981,1
DA:983,1
DA:984,1
DA:1090,2
DA:1091,2
DA:1496,1
DA:1505,1
DA:1506,1
DA:1507,3
DA:1509,1
DA:1511,1
DA:1513,1
DA:1514,1
DA:1606,0
DA:1610,0
DA:1612,0
DA:1613,0
DA:1614,0
DA:1615,0
DA:1617,0
DA:1623,4
DA:1627,5
DA:1628,1
DA:1629,1
DA:1631,0
DA:1632,3
DA:1800,1
DA:1804,1
DA:1805,1
DA:1806,1
DA:1807,1
DA:1809,0
DA:1810,0
DA:1811,0
DA:1813,1
DA:1814,1
DA:1816,1
DA:1817,1
DA:1819,0
DA:1821,0
DA:1822,0
DA:1823,0
DA:1902,1
DA:1906,1
DA:1910,1
DA:1912,1
DA:1913,0
DA:1914,0
DA:1916,1
DA:1918,0
DA:1921,0
DA:1922,0
DA:1923,0
DA:1924,0
DA:1926,0
DA:1927,0
DA:1929,0
DA:1932,0
DA:1934,0
DA:1937,0
DA:1938,0
DA:1939,0
DA:1940,0
DA:1942,0
DA:1943,0
DA:1945,0
DA:1948,0
DA:1952,0
DA:1963,1
DA:1973,1
DA:1975,1
DA:1976,1
DA:1978,1
DA:1979,0
DA:2292,1
DA:2295,1
DA:2296,4
DA:2297,0
DA:2298,4
LF:172
LH:104
end_of_record
SF:/usr/include/c++/5/bits/stl_uninitialized.h
FN:68,_ZNSt20__uninitialized_copyILb0EE13__uninit_copyIP2M4S3_EET0_T_S5_S4_
FN:68,_ZNSt20__uninitialized_copyILb0EE13__uninit_copyIPNSt7__cxx1112basic_stringIcSt11char_traitsIcESaIcEEES8_EET0_T_SA_S9_
FN:91,_ZNSt20__uninitialized_copyILb1EE13__uninit_copyIPP14TransformationS4_EET0_T_S6_S5_
FN:91,_ZNSt20__uninitialized_copyILb1EE13__uninit_copyIPhS2_EET0_T_S4_S3_
FN:91,_ZNSt20__uninitialized_copyILb1EE13__uninit_copyIN9__gnu_cxx17__normal_iteratorIPKhSt6vectorIhSaIhEEEEPhEET0_T_SC_SB_
FN:91,_ZNSt20__uninitialized_copyILb1EE13__uninit_copyIPP8StlShapeS4_EET0_T_S6_S5_
FN:91,_ZNSt20__uninitialized_copyILb1EE13__uninit_copyIP8triangleS3_EET0_T_S5_S4_
FN:91,_ZNSt20__uninitialized_copyILb1EE13__uninit_copyIP8GLVertexS3_EET0_T_S5_S4_
FN:107,_ZSt18uninitialized_copyIPhS0_ET0_T_S2_S1_
FN:107,_ZSt18uninitialized_copyIPP8StlShapeS2_ET0_T_S4_S3_
FN:107,_ZSt18uninitialized_copyIN9__gnu_cxx17__normal_iteratorIPKhSt6vectorIhSaIhEEEEPhET0_T_SA_S9_
FN:107,_ZSt18uninitialized_copyIP8GLVertexS1_ET0_T_S3_S2_
FN:107,_ZSt18uninitialized_copyIP8triangleS1_ET0_T_S3_S2_
FN:107,_ZSt18uninitialized_copyIPP14TransformationS2_ET0_T_S4_S3_
FN:107,_ZSt18uninitialized_copyIPNSt7__cxx1112basic_stringIcSt11char_traitsIcESaIcEEES6_ET0_T_S8_S7_
FN:107,_ZSt18uninitialized_copyIP2M4S1_ET0_T_S3_S2_
FN:195,_ZNSt22__uninitialized_fill_nILb0EE15__uninit_fill_nIP2M4mS2_EET_S4_T0_RKT1_
FN:218,_ZNSt22__uninitialized_fill_nILb1EE15__uninit_fill_nIPhmhEET_S3_T0_RKT1_
FN:218,_ZNSt22__uninitialized_fill_nILb1EE15__uninit_fill_nIP8GLVertexmS2_EET_S4_T0_RKT1_
FN:218,_ZNSt22__uninitialized_fill_nILb1EE15__uninit_fill_nIPP8StlShapemS3_EET_S5_T0_RKT1_
FN:218,_ZNSt22__uninitialized_fill_nILb1EE15__uninit_fill_nIPP14TransformationmS3_EET_S5_T0_RKT1_
FN:236,_ZSt20uninitialized_fill_nIPP8StlShapemS1_ET_S3_T0_RKT1_
FN:236,_ZSt20uninitialized_fill_nIP8GLVertexmS0_ET_S2_T0_RKT1_
FN:236,_ZSt20uninitialized_fill_nIPP14TransformationmS1_ET_S3_T0_RKT1_
FN:236,_ZSt20uninitialized_fill_nIPhmhET_S1_T0_RKT1_
FN:236,_ZSt20uninitialized_fill_nIP2M4mS0_ET_S2_T0_RKT1_
FN:279,_ZSt22__uninitialized_copy_aIPNSt7__cxx1112basic_stringIcSt11char_traitsIcESaIcEEES6_S5_ET0_T_S8_S7_RSaIT1_E
FN:279,_ZSt22__uninitialized_copy_aIP8triangleS1_S0_ET0_T_S3_S2_RSaIT1_E
FN:279,_ZSt22__uninitialized_copy_aIP8GLVertexS1_S0_ET0_T_S3_S2_RSaIT1_E
FN:279,_ZSt22__uninitialized_copy_aIPP8StlShapeS2_S1_ET0_T_S4_S3_RSaIT1_E
FN:279,_ZSt22__uninitialized_copy_aIN9__gnu_cxx17__normal_iteratorIPKhSt6vectorIhSaIhEEEEPhhET0_T_SA_S9_RSaIT1_E
FN:279,_ZSt22__uninitialized_copy_aIPhS0_hET0_T_S2_S1_RSaIT1_E
FN:279,_ZSt22__uninitialized_copy_aIPP14TransformationS2_S1_ET0_T_S4_S3_RSaIT1_E
FN:279,_ZSt22__uninitialized_copy_aIP2M4S1_S0_ET0_T_S3_S2_RSaIT1_E
FN:286,_ZSt22__uninitialized_move_aIPP14TransformationS2_SaIS1_EET0_T_S5_S4_RT1_
FN:286,_ZSt22__uninitialized_move_aIPhS0_SaIhEET0_T_S3_S2_RT1_
FN:286,_ZSt22__uninitialized_move_aIPP8StlShapeS2_SaIS1_EET0_T_S5_S4_RT1_
FN:286,_ZSt22__uninitialized_move_aIP8GLVertexS1_SaIS0_EET0_T_S4_S3_RT1_
FN:286,_ZSt22__uninitialized_move_aIP2M4S1_SaIS0_EET0_T_S4_S3_RT1_
FN:297,_ZSt34__uninitialized_move_if_noexcept_aIP2M4S1_SaIS0_EET0_T_S4_S3_RT1_
FN:297,_ZSt34__uninitialized_move_if_noexcept_aIPP14TransformationS2_SaIS1_EET0_T_S5_S4_RT1_
FN:297,_ZSt34__uninitialized_move_if_noexcept_aIPP8StlShapeS2_SaIS1_EET0_T_S5_S4_RT1_
FN:297,_ZSt34__uninitialized_move_if_noexcept_aIPhS0_SaIhEET0_T_S3_S2_RT1_
FN:297,_ZSt34__uninitialized_move_if_noexcept_aIP8triangleS1_SaIS0_EET0_T_S4_S3_RT1_
FN:297,_ZSt34__uninitialized_move_if_noexcept_aIPNSt7__cxx1112basic_stringIcSt11char_traitsIcESaIcEEES6_SaIS5_EET0_T_S9_S8_RT1_
FN:297,_ZSt34__uninitialized_move_if_noexcept_aIP8GLVertexS1_SaIS0_EET0_T_S4_S3_RT1_
FN:356,_ZSt24__uninitialized_fill_n_aIP8GLVertexmS0_S0_ET_S2_T0_RKT1_RSaIT2_E
FN:356,_ZSt24__uninitialized_fill_n_aIPP14TransformationmS1_S1_ET_S3_T0_RKT1_RSaIT2_E
FN:356,_ZSt24__uninitialized_fill_n_aIPP8StlShapemS1_S1_ET_S3_T0_RKT1_RSaIT2_E
FN:356,_ZSt24__uninitialized_fill_n_aIP2M4mS0_S0_ET_S2_T0_RKT1_RSaIT2_E
FN:356,_ZSt24__uninitialized_fill_n_aIPhmhhET_S1_T0_RKT1_RSaIT2_E
FNDA:6,_ZNSt20__uninitialized_copyILb0EE13__uninit_copyIP2M4S3_EET0_T_S5_S4_
FNDA:18,_ZNSt20__uninitialized_copyILb0EE13__uninit_copyIPNSt7__cxx1112basic_stringIcSt11char_traitsIcESaIcEEES8_EET0_T_SA_S9_
FNDA:2,_ZNSt20__uninitialized_copyILb1EE13__uninit_copyIPP14TransformationS4_EET0_T_S6_S5_
FNDA:2,_ZNSt20__uninitialized_copyILb1EE13__uninit_copyIPP8StlShapeS4_EET0_T_S6_S5_
FNDA:2,_ZNSt20__uninitialized_copyILb1EE13__uninit_copyIP8GLVertexS3_EET0_T_S5_S4_
FNDA:36,_ZNSt20__uninitialized_copyILb1EE13__uninit_copyIP8triangleS3_EET0_T_S5_S4_
FNDA:22,_ZNSt20__uninitialized_copyILb1EE13__uninit_copyIN9__gnu_cxx17__normal_iteratorIPKhSt6vectorIhSaIhEEEEPhEET0_T_SC_SB_
FNDA:0,_ZNSt20__uninitialized_copyILb1EE13__uninit_copyIPhS2_EET0_T_S4_S3_
FNDA:2,_ZSt18uninitialized_copyIPP14TransformationS2_ET0_T_S4_S3_
FNDA:2,_ZSt18uninitialized_copyIPP8StlShapeS2_ET0_T_S4_S3_
FNDA:2,_ZSt18uninitialized_copyIP8GLVertexS1_ET0_T_S3_S2_
FNDA:6,_ZSt18uninitialized_copyIP2M4S1_ET0_T_S3_S2_
FNDA:36,_ZSt18uninitialized_copyIP8triangleS1_ET0_T_S3_S2_
FNDA:18,_ZSt18uninitialized_copyIPNSt7__cxx1112basic_stringIcSt11char_traitsIcESaIcEEES6_ET0_T_S8_S7_
FNDA:22,_ZSt18uninitialized_copyIN9__gnu_cxx17__normal_iteratorIPKhSt6vectorIhSaIhEEEEPhET0_T_SA_S9_
FNDA:0,_ZSt18uninitialized_copyIPhS0_ET0_T_S2_S1_
FNDA:3,_ZNSt22__uninitialized_fill_nILb0EE15__uninit_fill_nIP2M4mS2_EET_S4_T0_RKT1_
FNDA:1,_ZNSt22__uninitialized_fill_nILb1EE15__uninit_fill_nIPP14TransformationmS3_EET_S5_T0_RKT1_
FNDA:1,_ZNSt22__uninitialized_fill_nILb1EE15__uninit_fill_nIPP8StlShapemS3_EET_S5_T0_RKT1_
FNDA:0,_ZNSt22__uninitialized_fill_nILb1EE15__uninit_fill_nIPhmhEET_S3_T0_RKT1_
FNDA:1,_ZNSt22__uninitialized_fill_nILb1EE15__uninit_fill_nIP8GLVertexmS2_EET_S4_T0_RKT1_
FNDA:1,_ZSt20uninitialized_fill_nIPP14TransformationmS1_ET_S3_T0_RKT1_
FNDA:1,_ZSt20uninitialized_fill_nIPP8StlShapemS1_ET_S3_T0_RKT1_
FNDA:0,_ZSt20uninitialized_fill_nIPhmhET_S1_T0_RKT1_
FNDA:1,_ZSt20uninitialized_fill_nIP8GLVertexmS0_ET_S2_T0_RKT1_
FNDA:3,_ZSt20uninitialized_fill_nIP2M4mS0_ET_S2_T0_RKT1_
FNDA:2,_ZSt22__uninitialized_copy_aIPP14TransformationS2_S1_ET0_T_S4_S3_RSaIT1_E
FNDA:2,_ZSt22__uninitialized_copy_aIPP8StlShapeS2_S1_ET0_T_S4_S3_RSaIT1_E
FNDA:2,_ZSt22__uninitialized_copy_aIP8GLVertexS1_S0_ET0_T_S3_S2_RSaIT1_E
FNDA:6,_ZSt22__uninitialized_copy_aIP2M4S1_S0_ET0_T_S3_S2_RSaIT1_E
FNDA:36,_ZSt22__uninitialized_copy_aIP8triangleS1_S0_ET0_T_S3_S2_RSaIT1_E
FNDA:18,_ZSt22__uninitialized_copy_aIPNSt7__cxx1112basic_stringIcSt11char_traitsIcESaIcEEES6_S5_ET0_T_S8_S7_RSaIT1_E
FNDA:22,_ZSt22__uninitialized_copy_aIN9__gnu_cxx17__normal_iteratorIPKhSt6vectorIhSaIhEEEEPhhET0_T_SA_S9_RSaIT1_E
FNDA:0,_ZSt22__uninitialized_copy_aIPhS0_hET0_T_S2_S1_RSaIT1_E
FNDA:0,_ZSt22__uninitialized_move_aIPP14TransformationS2_SaIS1_EET0_T_S5_S4_RT1_
FNDA:0,_ZSt22__uninitialized_move_aIPP8StlShapeS2_SaIS1_EET0_T_S5_S4_RT1_
FNDA:0,_ZSt22__uninitialized_move_aIPhS0_SaIhEET0_T_S3_S2_RT1_
FNDA:0,_ZSt22__uninitialized_move_aIP8GLVertexS1_SaIS0_EET0_T_S4_S3_RT1_
FNDA:0,_ZSt22__uninitialized_move_aIP2M4S1_SaIS0_EET0_T_S4_S3_RT1_
FNDA:2,_ZSt34__uninitialized_move_if_noexcept_aIPP14TransformationS2_SaIS1_EET0_T_S5_S4_RT1_
FNDA:2,_ZSt34__uninitialized_move_if_noexcept_aIPP8StlShapeS2_SaIS1_EET0_T_S5_S4_RT1_
FNDA:0,_ZSt34__uninitialized_move_if_noexcept_aIPhS0_SaIhEET0_T_S3_S2_RT1_
FNDA:2,_ZSt34__uninitialized_move_if_noexcept_aIP8GLVertexS1_SaIS0_EET0_T_S4_S3_RT1_
FNDA:6,_ZSt34__uninitialized_move_if_noexcept_aIP2M4S1_SaIS0_EET0_T_S4_S3_RT1_
FNDA:36,_ZSt34__uninitialized_move_if_noexcept_aIP8triangleS1_SaIS0_EET0_T_S4_S3_RT1_
FNDA:18,_ZSt34__uninitialized_move_if_noexcept_aIPNSt7__cxx1112basic_stringIcSt11char_traitsIcESaIcEEES6_SaIS5_EET0_T_S9_S8_RT1_
FNDA:1,_ZSt24__uninitialized_fill_n_aIPP14TransformationmS1_S1_ET_S3_T0_RKT1_RSaIT2_E
FNDA:1,_ZSt24__uninitialized_fill_n_aIPP8StlShapemS1_S1_ET_S3_T0_RKT1_RSaIT2_E
FNDA:0,_ZSt24__uninitialized_fill_n_aIPhmhhET_S1_T0_RKT1_RSaIT2_E
FNDA:1,_ZSt24__uninitialized_fill_n_aIP8GLVertexmS0_S0_ET_S2_T0_RKT1_RSaIT2_E
FNDA:3,_ZSt24__uninitialized_fill_n_aIP2M4mS0_S0_ET_S2_T0_RKT1_RSaIT2_E
FNF:51
FNH:39
DA:68,24
DA:71,24
DA:74,68
DA:75,22
DA:76,24
DA:78,0
DA:80,0
DA:81,0
DA:91,64
DA:93,64
DA:107,88
DA:115,88
DA:126,88
DA:195,3
DA:198,3
DA:201,99
DA:202,48
DA:203,3
DA:218,3
DA:220,3
DA:236,6
DA:241,6
DA:247,6
DA:279,88
DA:281,88
DA:286,0
DA:291,0
DA:297,66
DA:304,66
DA:356,6
DA:358,6
LF:31
LH:26
end_of_record
SF:/usr/include/c++/5/bits/stl_vector.h
FN:79,_ZNSt12_Vector_baseIP8StlShapeSaIS1_EE12_Vector_implD2Ev
FN:79,_ZNSt12_Vector_baseI2M4SaIS0_EE12_Vector_implD2Ev
FN:79,_ZNSt12_Vector_baseI8GLVertexSaIS0_EE12_Vector_implD2Ev
FN:79,_ZNSt12_Vector_baseINSt7__cxx1112basic_stringIcSt11char_traitsIcESaIcEEESaIS5_EE12_Vector_implD2Ev
FN:79,_ZNSt12_Vector_baseI8triangleSaIS0_EE12_Vector_implD2Ev
FN:79,_ZNSt12_Vector_baseIhSaIhEE12_Vector_implD2Ev
FN:79,_ZNSt12_Vector_baseIP14TransformationSaIS1_EE12_Vector_implD2Ev
FN:86,_ZNSt12_Vector_baseI2M4SaIS0_EE12_Vector_implC2Ev
FN:86,_ZNSt12_Vector_baseIP8StlShapeSaIS1_EE12_Vector_implC2Ev
FN:86,_ZNSt12_Vector_baseI8triangleSaIS0_EE12_Vector_implC2Ev
FN:86,_ZNSt12_Vector_baseIP14TransformationSaIS1_EE12_Vector_implC2Ev
FN:86,_ZNSt12_Vector_baseINSt7__cxx1112basic_stringIcSt11char_traitsIcESaIcEEESaIS5_EE12_Vector_implC2Ev
FN:86,_ZNSt12_Vector_baseIhSaIhEE12_Vector_implC2Ev
FN:86,_ZNSt12_Vector_baseI8GLVertexSaIS0_EE12_Vector_implC2Ev
FN:90,_ZNSt12_Vector_baseIhSaIhEE12_Vector_implC2ERKS0_
FN:113,_ZNSt12_Vector_baseIhSaIhEE19_M_get_Tp_allocatorEv
FN:113,_ZNSt12_Vector_baseI2M4SaIS0_EE19_M_get_Tp_allocatorEv
FN:113,_ZNSt12_Vector_baseI8triangleSaIS0_EE19_M_get_Tp_allocatorEv
FN:113,_ZNSt12_Vector_baseIP8StlShapeSaIS1_EE19_M_get_Tp_allocatorEv
FN:113,_ZNSt12_Vector_baseI8GLVertexSaIS0_EE19_M_get_Tp_allocatorEv
FN:113,_ZNSt12_Vector_baseINSt7__cxx1112basic_stringIcSt11char_traitsIcESaIcEEESaIS5_EE19_M_get_Tp_allocatorEv
FN:113,_ZNSt12_Vector_baseIP14TransformationSaIS1_EE19_M_get_Tp_allocatorEv
FN:117,_ZNKSt12_Vector_baseI2M4SaIS0_EE19_M_get_Tp_allocatorEv
FN:117,_ZNKSt12_Vector_baseI8GLVertexSaIS0_EE19_M_get_Tp_allocatorEv
FN:117,_ZNKSt12_Vector_baseI8triangleSaIS0_EE19_M_get_Tp_allocatorEv
FN:117,_ZNKSt12_Vector_baseIP8StlShapeSaIS1_EE19_M_get_Tp_allocatorEv
FN:117,_ZNKSt12_Vector_baseIhSaIhEE19_M_get_Tp_allocatorEv
FN:117,_ZNKSt12_Vector_baseINSt7__cxx1112basic_stringIcSt11char_traitsIcESaIcEEESaIS5_EE19_M_get_Tp_allocatorEv
FN:117,_ZNKSt12_Vector_baseIP14TransformationSaIS1_EE19_M_get_Tp_allocatorEv
FN:124,_ZNSt12_Vector_baseINSt7__cxx1112basic_stringIcSt11char_traitsIcESaIcEEESaIS5_EEC2Ev
FN:124,_ZNSt12_Vector_baseI8triangleSaIS0_EEC2Ev
FN:124,_ZNSt12_Vector_baseI2M4SaIS0_EEC2Ev
FN:124,_ZNSt12_Vector_baseI8GLVertexSaIS0_EEC2Ev
FN:124,_ZNSt12_Vector_baseIhSaIhEEC2Ev
FN:124,_ZNSt12_Vector_baseIP8StlShapeSaIS1_EEC2Ev
FN:124,_ZNSt12_Vector_baseIP14TransformationSaIS1_EEC2Ev
FN:134,_ZNSt12_Vector_baseIhSaIhEEC2EmRKS0_
FN:159,_ZNSt12_Vector_baseIP14TransformationSaIS1_EED2Ev
FN:159,_ZNSt12_Vector_baseIP8StlShapeSaIS1_EED2Ev
FN:159,_ZNSt12_Vector_baseI2M4SaIS0_EED2Ev
FN:159,_ZNSt12_Vector_baseI8GLVertexSaIS0_EED2Ev
FN:159,_ZNSt12_Vector_baseI8triangleSaIS0_EED2Ev
FN:159,_ZNSt12_Vector_baseINSt7__cxx1112basic_stringIcSt11char_traitsIcESaIcEEESaIS5_EED2Ev
FN:159,_ZNSt12_Vector_baseIhSaIhEED2Ev
FN:167,_ZNSt12_Vector_baseIP14TransformationSaIS1_EE11_M_allocateEm
FN:167,_ZNSt12_Vector_baseI8triangleSaIS0_EE11_M_allocateEm
FN:167,_ZNSt12_Vector_baseIhSaIhEE11_M_allocateEm
FN:167,_ZNSt12_Vector_baseI8GLVertexSaIS0_EE11_M_allocateEm
FN:167,_ZNSt12_Vector_baseINSt7__cxx1112basic_stringIcSt11char_traitsIcESaIcEEESaIS5_EE11_M_allocateEm
FN:167,_ZNSt12_Vector_baseI2M4SaIS0_EE11_M_allocateEm
FN:167,_ZNSt12_Vector_baseIP8StlShapeSaIS1_EE11_M_allocateEm
FN:174,_ZNSt12_Vector_baseINSt7__cxx1112basic_stringIcSt11char_traitsIcESaIcEEESaIS5_EE13_M_deallocateEPS5_m
FN:174,_ZNSt12_Vector_baseIP14TransformationSaIS1_EE13_M_deallocateEPS1_m
FN:174,_ZNSt12_Vector_baseI8GLVertexSaIS0_EE13_M_deallocateEPS0_m
FN:174,_ZNSt12_Vector_baseI2M4SaIS0_EE13_M_deallocateEPS0_m
FN:174,_ZNSt12_Vector_baseI8triangleSaIS0_EE13_M_deallocateEPS0_m
FN:174,_ZNSt12_Vector_baseIP8StlShapeSaIS1_EE13_M_deallocateEPS1_m
FN:174,_ZNSt12_Vector_baseIhSaIhEE13_M_deallocateEPhm
FN:183,_ZNSt12_Vector_baseIhSaIhEE17_M_create_storageEm
FN:253,_ZNSt6vectorI2M4SaIS0_EEC2Ev
FN:253,_ZNSt6vectorI8GLVertexSaIS0_EEC2Ev
FN:253,_ZNSt6vectorI8triangleSaIS0_EEC2Ev
FN:253,_ZNSt6vectorIP8StlShapeSaIS1_EEC2Ev
FN:253,_ZNSt6vectorINSt7__cxx1112basic_stringIcSt11char_traitsIcESaIcEEESaIS5_EEC2Ev
FN:253,_ZNSt6vectorIhSaIhEEC2Ev
FN:253,_ZNSt6vectorIP14TransformationSaIS1_EEC2Ev
FN:318,_ZNSt6vectorIhSaIhEEC2ERKS1_
FN:423,_ZNSt6vectorIP8StlShapeSaIS1_EED2Ev
FN:423,_ZNSt6vectorINSt7__cxx1112basic_stringIcSt11char_traitsIcESaIcEEESaIS5_EED2Ev
FN:423,_ZNSt6vectorI8triangleSaIS0_EED2Ev
FN:423,_ZNSt6vectorIP14TransformationSaIS1_EED2Ev
FN:423,_ZNSt6vectorI2M4SaIS0_EED2Ev
FN:423,_ZNSt6vectorIhSaIhEED2Ev
FN:423,_ZNSt6vectorI8GLVertexSaIS0_EED2Ev
FN:547,_ZNSt6vectorINSt7__cxx1112basic_stringIcSt11char_traitsIcESaIcEEESaIS5_EE5beginEv
FN:547,_ZNSt6vectorIhSaIhEE5beginEv
FN:547,_ZNSt6vectorIP8StlShapeSaIS1_EE5beginEv
FN:547,_ZNSt6vectorI8triangleSaIS0_EE5beginEv
FN:547,_ZNSt6vectorI2M4SaIS0_EE5beginEv
FN:547,_ZNSt6vectorI8GLVertexSaIS0_EE5beginEv
FN:547,_ZNSt6vectorIP14TransformationSaIS1_EE5beginEv
FN:556,_ZNKSt6vectorIhSaIhEE5beginEv
FN:565,_ZNSt6vectorIhSaIhEE3endEv
FN:565,_ZNSt6vectorIP8StlShapeSaIS1_EE3endEv
FN:565,_ZNSt6vectorIP14TransformationSaIS1_EE3endEv
FN:565,_ZNSt6vectorI8triangleSaIS0_EE3endEv
FN:565,_ZNSt6vectorI2M4SaIS0_EE3endEv
FN:565,_ZNSt6vectorI8GLVertexSaIS0_EE3endEv
FN:565,_ZNSt6vectorINSt7__cxx1112basic_stringIcSt11char_traitsIcESaIcEEESaIS5_EE3endEv
FN:574,_ZNKSt6vectorIhSaIhEE3endEv
FN:654,_ZNKSt6vectorI2M4SaIS0_EE4sizeEv
FN:654,_ZNKSt6vectorIP14TransformationSaIS1_EE4sizeEv
FN:654,_ZNKSt6vectorIhSaIhEE4sizeEv
FN:654,_ZNKSt6vectorI8triangleSaIS0_EE4sizeEv
FN:654,_ZNKSt6vectorIP8StlShapeSaIS1_EE4sizeEv
FN:654,_ZNKSt6vectorI8GLVertexSaIS0_EE4sizeEv
FN:654,_ZNKSt6vectorINSt7__cxx1112basic_stringIcSt11char_traitsIcESaIcEEESaIS5_EE4sizeEv
FN:659,_ZNKSt6vectorIP8StlShapeSaIS1_EE8max_sizeEv
FN:659,_ZNKSt6vectorINSt7__cxx1112basic_stringIcSt11char_traitsIcESaIcEEESaIS5_EE8max_sizeEv
FN:659,_ZNKSt6vectorI2M4SaIS0_EE8max_sizeEv
FN:659,_ZNKSt6vectorIP14TransformationSaIS1_EE8max_sizeEv
FN:659,_ZNKSt6vectorI8GLVertexSaIS0_EE8max_sizeEv
FN:659,_ZNKSt6vectorIhSaIhEE8max_sizeEv
FN:659,_ZNKSt6vectorI8triangleSaIS0_EE8max_sizeEv
FN:713,_ZNSt6vectorI8GLVertexSaIS0_EE6resizeEmS0_
FN:713,_ZNSt6vectorIP8StlShapeSaIS1_EE6resizeEmS1_
FN:713,_ZNSt6vectorIP14TransformationSaIS1_EE6resizeEmS1_
FN:713,_ZNSt6vectorI2M4SaIS0_EE6resizeEmS0_
FN:713,_ZNSt6vectorIhSaIhEE6resizeEmh
FN:734,_ZNKSt6vectorIhSaIhEE8capacityEv
FN:779,_ZNSt6vectorIP8StlShapeSaIS1_EEixEm
FN:779,_ZNSt6vectorI2M4SaIS0_EEixEm
FN:779,_ZNSt6vectorIhSaIhEEixEm
FN:779,_ZNSt6vectorIP14TransformationSaIS1_EEixEm
FN:779,_ZNSt6vectorINSt7__cxx1112basic_stringIcSt11char_traitsIcESaIcEEESaIS5_EEixEm
FN:779,_ZNSt6vectorI8triangleSaIS0_EEixEm
FN:779,_ZNSt6vectorI8GLVertexSaIS0_EEixEm
FN:913,_ZNSt6vectorINSt7__cxx1112basic_stringIcSt11char_traitsIcESaIcEEESaIS5_EE9push_backERKS5_
FN:913,_ZNSt6vectorI8triangleSaIS0_EE9push_backERKS0_
FN:1072,_ZNSt6vectorI2M4SaIS0_EE6insertEN9__gnu_cxx17__normal_iteratorIPS0_S2_EEmRKS0_
FN:1072,_ZNSt6vectorIP8StlShapeSaIS1_EE6insertEN9__gnu_cxx17__normal_iteratorIPS1_S3_EEmRKS1_
FN:1072,_ZNSt6vectorI8GLVertexSaIS0_EE6insertEN9__gnu_cxx17__normal_iteratorIPS0_S2_EEmRKS0_
FN:1072,_ZNSt6vectorIP14TransformationSaIS1_EE6insertEN9__gnu_cxx17__normal_iteratorIPS1_S3_EEmRKS1_
FN:1072,_ZNSt6vectorIhSaIhEE6insertEN9__gnu_cxx17__normal_iteratorIPhS1_EEmRKh
FN:1211,_ZNSt6vectorINSt7__cxx1112basic_stringIcSt11char_traitsIcESaIcEEESaIS5_EE5clearEv
FN:1221,_ZNSt6vectorIhSaIhEE20_M_allocate_and_copyIN9__gnu_cxx17__normal_iteratorIPKhS1_EEEEPhmT_S9_
FN:1422,_ZNKSt6vectorIP8StlShapeSaIS1_EE12_M_check_lenEmPKc
FN:1422,_ZNKSt6vectorI8triangleSaIS0_EE12_M_check_lenEmPKc
FN:1422,_ZNKSt6vectorI8GLVertexSaIS0_EE12_M_check_lenEmPKc
FN:1422,_ZNKSt6vectorIP14TransformationSaIS1_EE12_M_check_lenEmPKc
FN:1422,_ZNKSt6vectorI2M4SaIS0_EE12_M_check_lenEmPKc
FN:1422,_ZNKSt6vectorINSt7__cxx1112basic_stringIcSt11char_traitsIcESaIcEEESaIS5_EE12_M_check_lenEmPKc
FN:1422,_ZNKSt6vectorIhSaIhEE12_M_check_lenEmPKc
FN:1436,_ZNSt6vectorIP8StlShapeSaIS1_EE15_M_erase_at_endEPS1_
FN:1436,_ZNSt6vectorIhSaIhEE15_M_erase_at_endEPh
FN:1436,_ZNSt6vectorI2M4SaIS0_EE15_M_erase_at_endEPS0_
FN:1436,_ZNSt6vectorIP14TransformationSaIS1_EE15_M_erase_at_endEPS1_
FN:1436,_ZNSt6vectorINSt7__cxx1112basic_stringIcSt11char_traitsIcESaIcEEESaIS5_EE15_M_erase_at_endEPS5_
FN:1436,_ZNSt6vectorI8GLVertexSaIS0_EE15_M_erase_at_endEPS0_
FNDA:2,_ZNSt12_Vector_baseINSt7__cxx1112basic_stringIcSt11char_traitsIcESaIcEEESaIS5_EE12_Vector_implD2Ev
FNDA:0,_ZNSt12_Vector_baseI8GLVertexSaIS0_EE12_Vector_implD2Ev
FNDA:0,_ZNSt12_Vector_baseI2M4SaIS0_EE12_Vector_implD2Ev
FNDA:0,_ZNSt12_Vector_baseIP14TransformationSaIS1_EE12_Vector_implD2Ev
FNDA:0,_ZNSt12_Vector_baseIP8StlShapeSaIS1_EE12_Vector_implD2Ev
FNDA:0,_ZNSt12_Vector_baseI8triangleSaIS0_EE12_Vector_implD2Ev
FNDA:33,_ZNSt12_Vector_baseIhSaIhEE12_Vector_implD2Ev
FNDA:2,_ZNSt12_Vector_baseINSt7__cxx1112basic_stringIcSt11char_traitsIcESaIcEEESaIS5_EE12_Vector_implC2Ev
FNDA:1,_ZNSt12_Vector_baseI8GLVertexSaIS0_EE12_Vector_implC2Ev
FNDA:3,_ZNSt12_Vector_baseI2M4SaIS0_EE12_Vector_implC2Ev
FNDA:1,_ZNSt12_Vector_baseIP14TransformationSaIS1_EE12_Vector_implC2Ev
FNDA:1,_ZNSt12_Vector_baseIP8StlShapeSaIS1_EE12_Vector_implC2Ev
FNDA:1,_ZNSt12_Vector_baseI8triangleSaIS0_EE12_Vector_implC2Ev
FNDA:22,_ZNSt12_Vector_baseIhSaIhEE12_Vector_implC2Ev
FNDA:22,_ZNSt12_Vector_baseIhSaIhEE12_Vector_implC2ERKS0_
FNDA:34,_ZNSt12_Vector_baseINSt7__cxx1112basic_stringIcSt11char_traitsIcESaIcEEESaIS5_EE19_M_get_Tp_allocatorEv
FNDA:4,_ZNSt12_Vector_baseI8GLVertexSaIS0_EE19_M_get_Tp_allocatorEv
FNDA:12,_ZNSt12_Vector_baseI2M4SaIS0_EE19_M_get_Tp_allocatorEv
FNDA:4,_ZNSt12_Vector_baseIP14TransformationSaIS1_EE19_M_get_Tp_allocatorEv
FNDA:4,_ZNSt12_Vector_baseIP8StlShapeSaIS1_EE19_M_get_Tp_allocatorEv
FNDA:54,_ZNSt12_Vector_baseI8triangleSaIS0_EE19_M_get_Tp_allocatorEv
FNDA:66,_ZNSt12_Vector_baseIhSaIhEE19_M_get_Tp_allocatorEv
FNDA:2,_ZNKSt12_Vector_baseIP14TransformationSaIS1_EE19_M_get_Tp_allocatorEv
FNDA:2,_ZNKSt12_Vector_baseIP8StlShapeSaIS1_EE19_M_get_Tp_allocatorEv
FNDA:2,_ZNKSt12_Vector_baseI8GLVertexSaIS0_EE19_M_get_Tp_allocatorEv
FNDA:6,_ZNKSt12_Vector_baseI2M4SaIS0_EE19_M_get_Tp_allocatorEv
FNDA:36,_ZNKSt12_Vector_baseI8triangleSaIS0_EE19_M_get_Tp_allocatorEv
FNDA:18,_ZNKSt12_Vector_baseINSt7__cxx1112basic_stringIcSt11char_traitsIcESaIcEEESaIS5_EE19_M_get_Tp_allocatorEv
FNDA:22,_ZNKSt12_Vector_baseIhSaIhEE19_M_get_Tp_allocatorEv
FNDA:2,_ZNSt12_Vector_baseINSt7__cxx1112basic_stringIcSt11char_traitsIcESaIcEEESaIS5_EEC2Ev
FNDA:1,_ZNSt12_Vector_baseI8GLVertexSaIS0_EEC2Ev
FNDA:3,_ZNSt12_Vector_baseI2M4SaIS0_EEC2Ev
FNDA:1,_ZNSt12_Vector_baseIP14TransformationSaIS1_EEC2Ev
FNDA:1,_ZNSt12_Vector_baseIP8StlShapeSaIS1_EEC2Ev
FNDA:1,_ZNSt12_Vector_baseI8triangleSaIS0_EEC2Ev
FNDA:22,_ZNSt12_Vector_baseIhSaIhEEC2Ev
FNDA:22,_ZNSt12_Vector_baseIhSaIhEEC2EmRKS0_
FNDA:2,_ZNSt12_Vector_baseINSt7__cxx1112basic_stringIcSt11char_traitsIcESaIcEEESaIS5_EED2Ev
FNDA:0,_ZNSt12_Vector_baseI8GLVertexSaIS0_EED2Ev
FNDA:0,_ZNSt12_Vector_baseI2M4SaIS0_EED2Ev
FNDA:0,_ZNSt12_Vector_baseIP14TransformationSaIS1_EED2Ev
FNDA:0,_ZNSt12_Vector_baseIP8StlShapeSaIS1_EED2Ev
FNDA:0,_ZNSt12_Vector_baseI8triangleSaIS0_EED2Ev
FNDA:33,_ZNSt12_Vector_baseIhSaIhEED2Ev
FNDA:1,_ZNSt12_Vector_baseIP14TransformationSaIS1_EE11_M_allocateEm
FNDA:1,_ZNSt12_Vector_baseIP8StlShapeSaIS1_EE11_M_allocateEm
FNDA:1,_ZNSt12_Vector_baseI8GLVertexSaIS0_EE11_M_allocateEm
FNDA:3,_ZNSt12_Vector_baseI2M4SaIS0_EE11_M_allocateEm
FNDA:18,_ZNSt12_Vector_baseI8triangleSaIS0_EE11_M_allocateEm
FNDA:22,_ZNSt12_Vector_baseIhSaIhEE11_M_allocateEm
FNDA:9,_ZNSt12_Vector_baseINSt7__cxx1112basic_stringIcSt11char_traitsIcESaIcEEESaIS5_EE11_M_allocateEm
FNDA:1,_ZNSt12_Vector_baseI8GLVertexSaIS0_EE13_M_deallocateEPS0_m
FNDA:3,_ZNSt12_Vector_baseI2M4SaIS0_EE13_M_deallocateEPS0_m
FNDA:1,_ZNSt12_Vector_baseIP14TransformationSaIS1_EE13_M_deallocateEPS1_m
FNDA:1,_ZNSt12_Vector_baseIP8StlShapeSaIS1_EE13_M_deallocateEPS1_m
FNDA:18,_ZNSt12_Vector_baseI8triangleSaIS0_EE13_M_deallocateEPS0_m
FNDA:11,_ZNSt12_Vector_baseINSt7__cxx1112basic_stringIcSt11char_traitsIcESaIcEEESaIS5_EE13_M_deallocateEPS5_m
FNDA:33,_ZNSt12_Vector_baseIhSaIhEE13_M_deallocateEPhm
FNDA:22,_ZNSt12_Vector_baseIhSaIhEE17_M_create_storageEm
FNDA:2,_ZNSt6vectorINSt7__cxx1112basic_stringIcSt11char_traitsIcESaIcEEESaIS5_EEC2Ev
FNDA:1,_ZNSt6vectorI8GLVertexSaIS0_EEC2Ev
FNDA:3,_ZNSt6vectorI2M4SaIS0_EEC2Ev
FNDA:1,_ZNSt6vectorIP14TransformationSaIS1_EEC2Ev
FNDA:1,_ZNSt6vectorIP8StlShapeSaIS1_EEC2Ev
FNDA:1,_ZNSt6vectorI8triangleSaIS0_EEC2Ev
FNDA:22,_ZNSt6vectorIhSaIhEEC2Ev
FNDA:22,_ZNSt6vectorIhSaIhEEC2ERKS1_
FNDA:2,_ZNSt6vectorINSt7__cxx1112basic_stringIcSt11char_traitsIcESaIcEEESaIS5_EED2Ev
FNDA:0,_ZNSt6vectorI8GLVertexSaIS0_EED2Ev
FNDA:0,_ZNSt6vectorI2M4SaIS0_EED2Ev
FNDA:0,_ZNSt6vectorIP14TransformationSaIS1_EED2Ev
FNDA:0,_ZNSt6vectorIP8StlShapeSaIS1_EED2Ev
FNDA:0,_ZNSt6vectorI8triangleSaIS0_EED2Ev
FNDA:33,_ZNSt6vectorIhSaIhEED2Ev
FNDA:1,_ZNSt6vectorIP14TransformationSaIS1_EE5beginEv
FNDA:1,_ZNSt6vectorIP8StlShapeSaIS1_EE5beginEv
FNDA:1,_ZNSt6vectorI8GLVertexSaIS0_EE5beginEv
FNDA:3,_ZNSt6vectorI2M4SaIS0_EE5beginEv
FNDA:18,_ZNSt6vectorI8triangleSaIS0_EE5beginEv
FNDA:9,_ZNSt6vectorINSt7__cxx1112basic_stringIcSt11char_traitsIcESaIcEEESaIS5_EE5beginEv
FNDA:11,_ZNSt6vectorIhSaIhEE5beginEv
FNDA:33,_ZNKSt6vectorIhSaIhEE5beginEv
FNDA:1,_ZNSt6vectorIP14TransformationSaIS1_EE3endEv
FNDA:1,_ZNSt6vectorIP8StlShapeSaIS1_EE3endEv
FNDA:18,_ZNSt6vectorI8triangleSaIS0_EE3endEv
FNDA:11,_ZNSt6vectorIhSaIhEE3endEv
FNDA:1,_ZNSt6vectorI8GLVertexSaIS0_EE3endEv
FNDA:3,_ZNSt6vectorI2M4SaIS0_EE3endEv
FNDA:9,_ZNSt6vectorINSt7__cxx1112basic_stringIcSt11char_traitsIcESaIcEEESaIS5_EE3endEv
FNDA:33,_ZNKSt6vectorIhSaIhEE3endEv
FNDA:6,_ZNKSt6vectorIP14TransformationSaIS1_EE4sizeEv
FNDA:6,_ZNKSt6vectorIP8StlShapeSaIS1_EE4sizeEv
FNDA:44,_ZNKSt6vectorIhSaIhEE4sizeEv
FNDA:6,_ZNKSt6vectorI8GLVertexSaIS0_EE4sizeEv
FNDA:18,_ZNKSt6vectorI2M4SaIS0_EE4sizeEv
FNDA:38,_ZNKSt6vectorINSt7__cxx1112basic_stringIcSt11char_traitsIcESaIcEEESaIS5_EE4sizeEv
FNDA:69525,_ZNKSt6vectorI8triangleSaIS0_EE4sizeEv
FNDA:2,_ZNKSt6vectorIP14TransformationSaIS1_EE8max_sizeEv
FNDA:2,_ZNKSt6vectorIP8StlShapeSaIS1_EE8max_sizeEv
FNDA:0,_ZNKSt6vectorIhSaIhEE8max_sizeEv
FNDA:2,_ZNKSt6vectorI8GLVertexSaIS0_EE8max_sizeEv
FNDA:6,_ZNKSt6vectorI2M4SaIS0_EE8max_sizeEv
FNDA:36,_ZNKSt6vectorI8triangleSaIS0_EE8max_sizeEv
FNDA:18,_ZNKSt6vectorINSt7__cxx1112basic_stringIcSt11char_traitsIcESaIcEEESaIS5_EE8max_sizeEv
FNDA:1,_ZNSt6vectorIP14TransformationSaIS1_EE6resizeEmS1_
FNDA:1,_ZNSt6vectorIP8StlShapeSaIS1_EE6resizeEmS1_
FNDA:0,_ZNSt6vectorIhSaIhEE6resizeEmh
FNDA:1,_ZNSt6vectorI8GLVertexSaIS0_EE6resizeEmS0_
FNDA:3,_ZNSt6vectorI2M4SaIS0_EE6resizeEmS0_
FNDA:11,_ZNKSt6vectorIhSaIhEE8capacityEv
FNDA:5,_ZNSt6vectorIP14TransformationSaIS1_EEixEm
FNDA:6,_ZNSt6vectorIP8StlShapeSaIS1_EEixEm
FNDA:41,_ZNSt6vectorINSt7__cxx1112basic_stringIcSt11char_traitsIcESaIcEEESaIS5_EEixEm
FNDA:1250118,_ZNSt6vectorI8triangleSaIS0_EEixEm
FNDA:416736,_ZNSt6vectorI8GLVertexSaIS0_EEixEm
FNDA:0,_ZNSt6vectorIhSaIhEEixEm
FNDA:416768,_ZNSt6vectorI2M4SaIS0_EEixEm
FNDA:69451,_ZNSt6vectorI8triangleSaIS0_EE9push_backERKS0_
FNDA:49,_ZNSt6vectorINSt7__cxx1112basic_stringIcSt11char_traitsIcESaIcEEESaIS5_EE9push_backERKS5_
FNDA:1,_ZNSt6vectorIP14TransformationSaIS1_EE6insertEN9__gnu_cxx17__normal_iteratorIPS1_S3_EEmRKS1_
FNDA:1,_ZNSt6vectorIP8StlShapeSaIS1_EE6insertEN9__gnu_cxx17__normal_iteratorIPS1_S3_EEmRKS1_
FNDA:0,_ZNSt6vectorIhSaIhEE6insertEN9__gnu_cxx17__normal_iteratorIPhS1_EEmRKh
FNDA:1,_ZNSt6vectorI8GLVertexSaIS0_EE6insertEN9__gnu_cxx17__normal_iteratorIPS0_S2_EEmRKS0_
FNDA:3,_ZNSt6vectorI2M4SaIS0_EE6insertEN9__gnu_cxx17__normal_iteratorIPS0_S2_EEmRKS0_
FNDA:5,_ZNSt6vectorINSt7__cxx1112basic_stringIcSt11char_traitsIcESaIcEEESaIS5_EE5clearEv
FNDA:0,_ZNSt6vectorIhSaIhEE20_M_allocate_and_copyIN9__gnu_cxx17__normal_iteratorIPKhS1_EEEEPhmT_S9_
FNDA:1,_ZNKSt6vectorIP14TransformationSaIS1_EE12_M_check_lenEmPKc
FNDA:1,_ZNKSt6vectorIP8StlShapeSaIS1_EE12_M_check_lenEmPKc
FNDA:0,_ZNKSt6vectorIhSaIhEE12_M_check_lenEmPKc
FNDA:1,_ZNKSt6vectorI8GLVertexSaIS0_EE12_M_check_lenEmPKc
FNDA:3,_ZNKSt6vectorI2M4SaIS0_EE12_M_check_lenEmPKc
FNDA:18,_ZNKSt6vectorI8triangleSaIS0_EE12_M_check_lenEmPKc
FNDA:9,_ZNKSt6vectorINSt7__cxx1112basic_stringIcSt11char_traitsIcESaIcEEESaIS5_EE12_M_check_lenEmPKc
FNDA:0,_ZNSt6vectorIP14TransformationSaIS1_EE15_M_erase_at_endEPS1_
FNDA:0,_ZNSt6vectorIP8StlShapeSaIS1_EE15_M_erase_at_endEPS1_
FNDA:5,_ZNSt6vectorINSt7__cxx1112basic_stringIcSt11char_traitsIcESaIcEEESaIS5_EE15_M_erase_at_endEPS5_
FNDA:0,_ZNSt6vectorIhSaIhEE15_M_erase_at_endEPh
FNDA:0,_ZNSt6vectorI8GLVertexSaIS0_EE15_M_erase_at_endEPS0_
FNDA:0,_ZNSt6vectorI2M4SaIS0_EE15_M_erase_at_endEPS0_
FNF:139
FNH:113
DA:79,35
DA:86,31
DA:87,31
DA:88,31
DA:90,22
DA:91,22
DA:92,22
DA:113,178
DA:114,178
DA:117,88
DA:118,88
DA:124,31
DA:125,31
DA:134,22
DA:135,22
DA:136,22
DA:159,35
DA:160,70
DA:161,105
DA:167,55
DA:170,55
DA:174,68
DA:177,68
DA:178,26
DA:179,68
DA:183,22
DA:185,22
DA:186,22
DA:187,22
DA:188,22
DA:253,31
DA:257,31
DA:318,22
DA:320,22
DA:321,22
DA:322,22
DA:324,22
DA:325,22
DA:423,35
DA:424,35
DA:425,70
DA:547,44
DA:548,44
DA:556,33
DA:557,33
DA:565,44
DA:566,44
DA:574,33
DA:575,33
DA:654,69643
DA:655,69643
DA:659,66
DA:660,66
DA:713,6
DA:715,6
DA:716,6
DA:717,0
DA:718,0
DA:719,6
DA:734,11
DA:736,11
DA:779,2083674
DA:780,2083674
DA:913,69500
DA:915,69500
DA:917,69473
DA:919,69473
DA:925,27
DA:927,69500
DA:1072,6
DA:1073,6
DA:1211,5
DA:1212,5
DA:1221,0
DA:1224,0
DA:1227,0
DA:1228,0
DA:1229,0
DA:1231,0
DA:1233,0
DA:1234,0
DA:1422,33
DA:1424,33
DA:1425,0
DA:1427,33
DA:1428,33
DA:1436,5
DA:1438,5
DA:1439,5
DA:1440,5
LF:90
LH:79
end_of_record
SF:/usr/include/c++/5/bits/vector.tcc
FN:167,_ZNSt6vectorIhSaIhEEaSERKS1_
FN:326,_ZNSt6vectorI8triangleSaIS0_EE13_M_insert_auxEN9__gnu_cxx17__normal_iteratorIPS0_S2_EERKS0_
FN:326,_ZNSt6vectorINSt7__cxx1112basic_stringIcSt11char_traitsIcESaIcEEESaIS5_EE13_M_insert_auxEN9__gnu_cxx17__normal_iteratorIPS5_S7_EERKS5_
FN:449,_ZNSt6vectorIP14TransformationSaIS1_EE14_M_fill_insertEN9__gnu_cxx17__normal_iteratorIPS1_S3_EEmRKS1_
FN:449,_ZNSt6vectorIhSaIhEE14_M_fill_insertEN9__gnu_cxx17__normal_iteratorIPhS1_EEmRKh
FN:449,_ZNSt6vectorI2M4SaIS0_EE14_M_fill_insertEN9__gnu_cxx17__normal_iteratorIPS0_S2_EEmRKS0_
FN:449,_ZNSt6vectorI8GLVertexSaIS0_EE14_M_fill_insertEN9__gnu_cxx17__normal_iteratorIPS0_S2_EEmRKS0_
FN:449,_ZNSt6vectorIP8StlShapeSaIS1_EE14_M_fill_insertEN9__gnu_cxx17__normal_iteratorIPS1_S3_EEmRKS1_
FNDA:11,_ZNSt6vectorIhSaIhEEaSERKS1_
FNDA:18,_ZNSt6vectorI8triangleSaIS0_EE13_M_insert_auxEN9__gnu_cxx17__normal_iteratorIPS0_S2_EERKS0_
FNDA:9,_ZNSt6vectorINSt7__cxx1112basic_stringIcSt11char_traitsIcESaIcEEESaIS5_EE13_M_insert_auxEN9__gnu_cxx17__normal_iteratorIPS5_S7_EERKS5_
FNDA:1,_ZNSt6vectorIP14TransformationSaIS1_EE14_M_fill_insertEN9__gnu_cxx17__normal_iteratorIPS1_S3_EEmRKS1_
FNDA:1,_ZNSt6vectorIP8StlShapeSaIS1_EE14_M_fill_insertEN9__gnu_cxx17__normal_iteratorIPS1_S3_EEmRKS1_
FNDA:0,_ZNSt6vectorIhSaIhEE14_M_fill_insertEN9__gnu_cxx17__normal_iteratorIPhS1_EEmRKh
FNDA:1,_ZNSt6vectorI8GLVertexSaIS0_EE14_M_fill_insertEN9__gnu_cxx17__normal_iteratorIPS0_S2_EEmRKS0_
FNDA:3,_ZNSt6vectorI2M4SaIS0_EE14_M_fill_insertEN9__gnu_cxx17__normal_iteratorIPS0_S2_EEmRKS0_
FNF:8
FNH:7
DA:167,11
DA:170,11
DA:191,11
DA:192,11
DA:194,0
DA:195,0
DA:196,0
DA:197,0
DA:198,0
DA:200,0
DA:201,0
DA:202,0
DA:204,11
DA:206,11
DA:207,11
DA:211,0
DA:213,0
DA:216,0
DA:218,11
DA:220,11
DA:326,27
DA:330,27
DA:332,0
DA:333,0
DA:335,0
DA:337,0
DA:339,0
DA:343,0
DA:351,27
DA:352,27
DA:353,27
DA:354,27
DA:361,27
DA:368,27
DA:370,27
DA:372,27
DA:373,27
DA:375,27
DA:377,27
DA:379,27
DA:380,27
DA:382,0
DA:384,0
DA:385,0
DA:388,0
DA:389,0
DA:390,0
DA:392,27
DA:393,27
DA:394,54
DA:396,54
DA:397,27
DA:398,27
DA:399,27
DA:401,27
DA:449,6
DA:452,6
DA:454,12
DA:455,12
DA:457,0
DA:458,0
DA:459,0
DA:460,0
DA:462,0
DA:465,0
DA:466,0
DA:467,0
DA:469,0
DA:474,0
DA:475,0
DA:478,0
DA:479,0
DA:481,0
DA:482,0
DA:483,0
DA:489,6
DA:490,6
DA:491,6
DA:492,6
DA:496,6
DA:498,6
DA:499,6
DA:501,6
DA:503,6
DA:504,6
DA:506,6
DA:508,6
DA:510,6
DA:511,6
DA:513,0
DA:515,0
DA:516,0
DA:517,0
DA:518,0
DA:520,0
DA:521,0
DA:522,0
DA:523,0
DA:525,6
DA:526,6
DA:527,12
DA:529,12
DA:530,6
DA:531,6
DA:532,6
DA:535,6
LF:106
LH:58
end_of_record
SF:/usr/include/c++/5/ext/alloc_traits.h
FN:181,_ZN9__gnu_cxx14__alloc_traitsISaIhEE8allocateERS1_m
FN:181,_ZN9__gnu_cxx14__alloc_traitsISaI8GLVertexEE8allocateERS2_m
FN:181,_ZN9__gnu_cxx14__alloc_traitsISaISt13_Rb_tree_nodeISt4pairIKi9GLTextureEEEE8allocateERS7_m
FN:181,_ZN9__gnu_cxx14__alloc_traitsISaI8triangleEE8allocateERS2_m
FN:181,_ZN9__gnu_cxx14__alloc_traitsISaIP8StlShapeEE8allocateERS3_m
FN:181,_ZN9__gnu_cxx14__alloc_traitsISaI2M4EE8allocateERS2_m
FN:181,_ZN9__gnu_cxx14__alloc_traitsISaINSt7__cxx1112basic_stringIcSt11char_traitsIcESaIcEEEEE8allocateERS7_m
FN:181,_ZN9__gnu_cxx14__alloc_traitsISaIP14TransformationEE8allocateERS3_m
FN:184,_ZN9__gnu_cxx14__alloc_traitsISaIP8StlShapeEE10deallocateERS3_PS2_m
FN:184,_ZN9__gnu_cxx14__alloc_traitsISaI8triangleEE10deallocateERS2_PS1_m
FN:184,_ZN9__gnu_cxx14__alloc_traitsISaI8GLVertexEE10deallocateERS2_PS1_m
FN:184,_ZN9__gnu_cxx14__alloc_traitsISaINSt7__cxx1112basic_stringIcSt11char_traitsIcESaIcEEEEE10deallocateERS7_PS6_m
FN:184,_ZN9__gnu_cxx14__alloc_traitsISaISt13_Rb_tree_nodeISt4pairIKi9GLTextureEEEE10deallocateERS7_PS6_m
FN:184,_ZN9__gnu_cxx14__alloc_traitsISaIP14TransformationEE10deallocateERS3_PS2_m
FN:184,_ZN9__gnu_cxx14__alloc_traitsISaIhEE10deallocateERS1_Phm
FN:184,_ZN9__gnu_cxx14__alloc_traitsISaI2M4EE10deallocateERS2_PS1_m
FN:188,_ZN9__gnu_cxx14__alloc_traitsISaINSt7__cxx1112basic_stringIcSt11char_traitsIcESaIcEEEEE9constructIS6_EEvRS7_PS6_RKT_
FN:188,_ZN9__gnu_cxx14__alloc_traitsISaI8triangleEE9constructIS1_EEvRS2_PS1_RKT_
FN:191,_ZN9__gnu_cxx14__alloc_traitsISaI8triangleEE7destroyERS2_PS1_
FN:191,_ZN9__gnu_cxx14__alloc_traitsISaINSt7__cxx1112basic_stringIcSt11char_traitsIcESaIcEEEEE7destroyERS7_PS6_
FN:194,_ZN9__gnu_cxx14__alloc_traitsISaINSt7__cxx1112basic_stringIcSt11char_traitsIcESaIcEEEEE8max_sizeERKS7_
FN:194,_ZN9__gnu_cxx14__alloc_traitsISaIP14TransformationEE8max_sizeERKS3_
FN:194,_ZN9__gnu_cxx14__alloc_traitsISaIP8StlShapeEE8max_sizeERKS3_
FN:194,_ZN9__gnu_cxx14__alloc_traitsISaI8triangleEE8max_sizeERKS2_
FN:194,_ZN9__gnu_cxx14__alloc_traitsISaI8GLVertexEE8max_sizeERKS2_
FN:194,_ZN9__gnu_cxx14__alloc_traitsISaIhEE8max_sizeERKS1_
FN:194,_ZN9__gnu_cxx14__alloc_traitsISaI2M4EE8max_sizeERKS2_
FN:197,_ZN9__gnu_cxx14__alloc_traitsISaIhEE17_S_select_on_copyERKS1_
FNDA:1,_ZN9__gnu_cxx14__alloc_traitsISaISt13_Rb_tree_nodeISt4pairIKi9GLTextureEEEE8allocateERS7_m
FNDA:1,_ZN9__gnu_cxx14__alloc_traitsISaIP14TransformationEE8allocateERS3_m
FNDA:1,_ZN9__gnu_cxx14__alloc_traitsISaIP8StlShapeEE8allocateERS3_m
FNDA:1,_ZN9__gnu_cxx14__alloc_traitsISaI8GLVertexEE8allocateERS2_m
FNDA:3,_ZN9__gnu_cxx14__alloc_traitsISaI2M4EE8allocateERS2_m
FNDA:18,_ZN9__gnu_cxx14__alloc_traitsISaI8triangleEE8allocateERS2_m
FNDA:0,_ZN9__gnu_cxx14__alloc_traitsISaIhEE8allocateERS1_m
FNDA:9,_ZN9__gnu_cxx14__alloc_traitsISaINSt7__cxx1112basic_stringIcSt11char_traitsIcESaIcEEEEE8allocateERS7_m
FNDA:0,_ZN9__gnu_cxx14__alloc_traitsISaISt13_Rb_tree_nodeISt4pairIKi9GLTextureEEEE10deallocateERS7_PS6_m
FNDA:0,_ZN9__gnu_cxx14__alloc_traitsISaI8GLVertexEE10deallocateERS2_PS1_m
FNDA:0,_ZN9__gnu_cxx14__alloc_traitsISaI2M4EE10deallocateERS2_PS1_m
FNDA:0,_ZN9__gnu_cxx14__alloc_traitsISaIP14TransformationEE10deallocateERS3_PS2_m
FNDA:0,_ZN9__gnu_cxx14__alloc_traitsISaIP8StlShapeEE10deallocateERS3_PS2_m
FNDA:17,_ZN9__gnu_cxx14__alloc_traitsISaI8triangleEE10deallocateERS2_PS1_m
FNDA:9,_ZN9__gnu_cxx14__alloc_traitsISaINSt7__cxx1112basic_stringIcSt11char_traitsIcESaIcEEEEE10deallocateERS7_PS6_m
FNDA:0,_ZN9__gnu_cxx14__alloc_traitsISaIhEE10deallocateERS1_Phm
FNDA:69451,_ZN9__gnu_cxx14__alloc_traitsISaI8triangleEE9constructIS1_EEvRS2_PS1_RKT_
FNDA:49,_ZN9__gnu_cxx14__alloc_traitsISaINSt7__cxx1112basic_stringIcSt11char_traitsIcESaIcEEEEE9constructIS6_EEvRS7_PS6_RKT_
FNDA:0,_ZN9__gnu_cxx14__alloc_traitsISaI8triangleEE7destroyERS2_PS1_
FNDA:0,_ZN9__gnu_cxx14__alloc_traitsISaINSt7__cxx1112basic_stringIcSt11char_traitsIcESaIcEEEEE7destroyERS7_PS6_
FNDA:2,_ZN9__gnu_cxx14__alloc_traitsISaIP14TransformationEE8max_sizeERKS3_
FNDA:2,_ZN9__gnu_cxx14__alloc_traitsISaIP8StlShapeEE8max_sizeERKS3_
FNDA:0,_ZN9__gnu_cxx14__alloc_traitsISaIhEE8max_sizeERKS1_
FNDA:2,_ZN9__gnu_cxx14__alloc_traitsISaI8GLVertexEE8max_sizeERKS2_
FNDA:6,_ZN9__gnu_cxx14__alloc_traitsISaI2M4EE8max_sizeERKS2_
FNDA:36,_ZN9__gnu_cxx14__alloc_traitsISaI8triangleEE8max_sizeERKS2_
FNDA:18,_ZN9__gnu_cxx14__alloc_traitsISaINSt7__cxx1112basic_stringIcSt11char_traitsIcESaIcEEEEE8max_sizeERKS7_
FNDA:22,_ZN9__gnu_cxx14__alloc_traitsISaIhEE17_S_select_on_copyERKS1_
FNF:28
FNH:18
DA:181,34
DA:182,34
DA:184,26
DA:185,26
DA:188,69500
DA:189,69500
DA:191,0
DA:192,0
DA:194,66
DA:195,66
DA:197,22
LF:11
LH:9
end_of_record
SF:/usr/include/c++/5/ext/new_allocator.h
FN:79,_ZN9__gnu_cxx13new_allocatorIhEC2Ev
FN:79,_ZN9__gnu_cxx13new_allocatorISt4pairIKi9GLTextureEEC2Ev
FN:79,_ZN9__gnu_cxx13new_allocatorIP14TransformationEC2Ev
FN:79,_ZN9__gnu_cxx13new_allocatorI8GLVertexEC2Ev
FN:79,_ZN9__gnu_cxx13new_allocatorISt13_Rb_tree_nodeISt4pairIKi9GLTextureEEEC2Ev
FN:79,_ZN9__gnu_cxx13new_allocatorI8triangleEC2Ev
FN:79,_ZN9__gnu_cxx13new_allocatorINSt7__cxx1112basic_stringIcSt11char_traitsIcESaIcEEEEC2Ev
FN:79,_ZN9__gnu_cxx13new_allocatorI2M4EC2Ev
FN:79,_ZN9__gnu_cxx13new_allocatorIP8StlShapeEC2Ev
FN:81,_ZN9__gnu_cxx13new_allocatorIhEC2ERKS1_
FN:86,_ZN9__gnu_cxx13new_allocatorI8GLVertexED2Ev
FN:86,_ZN9__gnu_cxx13new_allocatorIP8StlShapeED2Ev
FN:86,_ZN9__gnu_cxx13new_allocatorI8triangleED2Ev
FN:86,_ZN9__gnu_cxx13new_allocatorI2M4ED2Ev
FN:86,_ZN9__gnu_cxx13new_allocatorISt4pairIKi9GLTextureEED2Ev
FN:86,_ZN9__gnu_cxx13new_allocatorISt13_Rb_tree_nodeISt4pairIKi9GLTextureEEED2Ev
FN:86,_ZN9__gnu_cxx13new_allocatorIP14TransformationED2Ev
FN:86,_ZN9__gnu_cxx13new_allocatorIhED2Ev
FN:86,_ZN9__gnu_cxx13new_allocatorINSt7__cxx1112basic_stringIcSt11char_traitsIcESaIcEEEED2Ev
FN:99,_ZN9__gnu_cxx13new_allocatorISt13_Rb_tree_nodeISt4pairIKi9GLTextureEEE8allocateEmPKv
FN:99,_ZN9__gnu_cxx13new_allocatorI2M4E8allocateEmPKv
FN:99,_ZN9__gnu_cxx13new_allocatorIP8StlShapeE8allocateEmPKv
FN:99,_ZN9__gnu_cxx13new_allocatorINSt7__cxx1112basic_stringIcSt11char_traitsIcESaIcEEEE8allocateEmPKv
FN:99,_ZN9__gnu_cxx13new_allocatorIhE8allocateEmPKv
FN:99,_ZN9__gnu_cxx13new_allocatorI8GLVertexE8allocateEmPKv
FN:99,_ZN9__gnu_cxx13new_allocatorIP14TransformationE8allocateEmPKv
FN:99,_ZN9__gnu_cxx13new_allocatorI8triangleE8allocateEmPKv
FN:109,_ZN9__gnu_cxx13new_allocatorINSt7__cxx1112basic_stringIcSt11char_traitsIcESaIcEEEE10deallocateEPS6_m
FN:109,_ZN9__gnu_cxx13new_allocatorIP14TransformationE10deallocateEPS2_m
FN:109,_ZN9__gnu_cxx13new_allocatorI8triangleE10deallocateEPS1_m
FN:109,_ZN9__gnu_cxx13new_allocatorI2M4E10deallocateEPS1_m
FN:109,_ZN9__gnu_cxx13new_allocatorISt13_Rb_tree_nodeISt4pairIKi9GLTextureEEE10deallocateEPS6_m
FN:109,_ZN9__gnu_cxx13new_allocatorIhE10deallocateEPhm
FN:109,_ZN9__gnu_cxx13new_allocatorI8GLVertexE10deallocateEPS1_m
FN:109,_ZN9__gnu_cxx13new_allocatorIP8StlShapeE10deallocateEPS2_m
FN:113,_ZNK9__gnu_cxx13new_allocatorINSt7__cxx1112basic_stringIcSt11char_traitsIcESaIcEEEE8max_sizeEv
FN:113,_ZNK9__gnu_cxx13new_allocatorIP8StlShapeE8max_sizeEv
FN:113,_ZNK9__gnu_cxx13new_allocatorIP14TransformationE8max_sizeEv
FN:113,_ZNK9__gnu_cxx13new_allocatorIhE8max_sizeEv
FN:113,_ZNK9__gnu_cxx13new_allocatorI2M4E8max_sizeEv
FN:113,_ZNK9__gnu_cxx13new_allocatorI8triangleE8max_sizeEv
FN:113,_ZNK9__gnu_cxx13new_allocatorISt13_Rb_tree_nodeISt4pairIKi9GLTextureEEE8max_sizeEv
FN:113,_ZNK9__gnu_cxx13new_allocatorI8GLVertexE8max_sizeEv
FN:129,_ZN9__gnu_cxx13new_allocatorINSt7__cxx1112basic_stringIcSt11char_traitsIcESaIcEEEE9constructEPS6_RKS6_
FN:129,_ZN9__gnu_cxx13new_allocatorISt4pairIKi9GLTextureEE9constructEPS4_RKS4_
FN:129,_ZN9__gnu_cxx13new_allocatorI8triangleE9constructEPS1_RKS1_
FN:133,_ZN9__gnu_cxx13new_allocatorINSt7__cxx1112basic_stringIcSt11char_traitsIcESaIcEEEE7destroyEPS6_
FN:133,_ZN9__gnu_cxx13new_allocatorI8triangleE7destroyEPS1_
FN:133,_ZN9__gnu_cxx13new_allocatorISt4pairIKi9GLTextureEE7destroyEPS4_
FNDA:1,_ZN9__gnu_cxx13new_allocatorISt4pairIKi9GLTextureEEC2Ev
FNDA:2,_ZN9__gnu_cxx13new_allocatorINSt7__cxx1112basic_stringIcSt11char_traitsIcESaIcEEEEC2Ev
FNDA:1,_ZN9__gnu_cxx13new_allocatorISt13_Rb_tree_nodeISt4pairIKi9GLTextureEEEC2Ev
FNDA:1,_ZN9__gnu_cxx13new_allocatorI8GLVertexEC2Ev
FNDA:3,_ZN9__gnu_cxx13new_allocatorI2M4EC2Ev
FNDA:1,_ZN9__gnu_cxx13new_allocatorIP14TransformationEC2Ev
FNDA:1,_ZN9__gnu_cxx13new_allocatorIP8StlShapeEC2Ev
FNDA:1,_ZN9__gnu_cxx13new_allocatorI8triangleEC2Ev
FNDA:22,_ZN9__gnu_cxx13new_allocatorIhEC2Ev
FNDA:22,_ZN9__gnu_cxx13new_allocatorIhEC2ERKS1_
FNDA:1,_ZN9__gnu_cxx13new_allocatorISt4pairIKi9GLTextureEED2Ev
FNDA:2,_ZN9__gnu_cxx13new_allocatorINSt7__cxx1112basic_stringIcSt11char_traitsIcESaIcEEEED2Ev
FNDA:0,_ZN9__gnu_cxx13new_allocatorI8GLVertexED2Ev
FNDA:0,_ZN9__gnu_cxx13new_allocatorI2M4ED2Ev
FNDA:0,_ZN9__gnu_cxx13new_allocatorIP14TransformationED2Ev
FNDA:0,_ZN9__gnu_cxx13new_allocatorIP8StlShapeED2Ev
FNDA:0,_ZN9__gnu_cxx13new_allocatorI8triangleED2Ev
FNDA:33,_ZN9__gnu_cxx13new_allocatorIhED2Ev
FNDA:0,_ZN9__gnu_cxx13new_allocatorISt13_Rb_tree_nodeISt4pairIKi9GLTextureEEED2Ev
FNDA:1,_ZN9__gnu_cxx13new_allocatorISt13_Rb_tree_nodeISt4pairIKi9GLTextureEEE8allocateEmPKv
FNDA:1,_ZN9__gnu_cxx13new_allocatorIP14TransformationE8allocateEmPKv
FNDA:1,_ZN9__gnu_cxx13new_allocatorIP8StlShapeE8allocateEmPKv
FNDA:1,_ZN9__gnu_cxx13new_allocatorI8GLVertexE8allocateEmPKv
FNDA:3,_ZN9__gnu_cxx13new_allocatorI2M4E8allocateEmPKv
FNDA:18,_ZN9__gnu_cxx13new_allocatorI8triangleE8allocateEmPKv
FNDA:0,_ZN9__gnu_cxx13new_allocatorIhE8allocateEmPKv
FNDA:9,_ZN9__gnu_cxx13new_allocatorINSt7__cxx1112basic_stringIcSt11char_traitsIcESaIcEEEE8allocateEmPKv
FNDA:0,_ZN9__gnu_cxx13new_allocatorISt13_Rb_tree_nodeISt4pairIKi9GLTextureEEE10deallocateEPS6_m
FNDA:0,_ZN9__gnu_cxx13new_allocatorI8GLVertexE10deallocateEPS1_m
FNDA:0,_ZN9__gnu_cxx13new_allocatorI2M4E10deallocateEPS1_m
FNDA:0,_ZN9__gnu_cxx13new_allocatorIP14TransformationE10deallocateEPS2_m
FNDA:0,_ZN9__gnu_cxx13new_allocatorIP8StlShapeE10deallocateEPS2_m
FNDA:17,_ZN9__gnu_cxx13new_allocatorI8triangleE10deallocateEPS1_m
FNDA:9,_ZN9__gnu_cxx13new_allocatorINSt7__cxx1112basic_stringIcSt11char_traitsIcESaIcEEEE10deallocateEPS6_m
FNDA:0,_ZN9__gnu_cxx13new_allocatorIhE10deallocateEPhm
FNDA:1,_ZNK9__gnu_cxx13new_allocatorISt13_Rb_tree_nodeISt4pairIKi9GLTextureEEE8max_sizeEv
FNDA:3,_ZNK9__gnu_cxx13new_allocatorIP14TransformationE8max_sizeEv
FNDA:3,_ZNK9__gnu_cxx13new_allocatorIP8StlShapeE8max_sizeEv
FNDA:3,_ZNK9__gnu_cxx13new_allocatorI8GLVertexE8max_sizeEv
FNDA:9,_ZNK9__gnu_cxx13new_allocatorI2M4E8max_sizeEv
FNDA:54,_ZNK9__gnu_cxx13new_allocatorI8triangleE8max_sizeEv
FNDA:0,_ZNK9__gnu_cxx13new_allocatorIhE8max_sizeEv
FNDA:27,_ZNK9__gnu_cxx13new_allocatorINSt7__cxx1112basic_stringIcSt11char_traitsIcESaIcEEEE8max_sizeEv
FNDA:1,_ZN9__gnu_cxx13new_allocatorISt4pairIKi9GLTextureEE9constructEPS4_RKS4_
FNDA:69451,_ZN9__gnu_cxx13new_allocatorI8triangleE9constructEPS1_RKS1_
FNDA:49,_ZN9__gnu_cxx13new_allocatorINSt7__cxx1112basic_stringIcSt11char_traitsIcESaIcEEEE9constructEPS6_RKS6_
FNDA:0,_ZN9__gnu_cxx13new_allocatorISt4pairIKi9GLTextureEE7destroyEPS4_
FNDA:0,_ZN9__gnu_cxx13new_allocatorI8triangleE7destroyEPS1_
FNDA:0,_ZN9__gnu_cxx13new_allocatorINSt7__cxx1112basic_stringIcSt11char_traitsIcESaIcEEEE7destroyEPS6_
FNF:49
FNH:32
DA:79,33
DA:81,22
DA:86,36
DA:99,34
DA:101,34
DA:102,0
DA:104,34
DA:109,26
DA:110,26
DA:113,100
DA:114,100
DA:129,69501
DA:130,69501
DA:133,0
LF:14
LH:12
end_of_record
SF:/usr/include/c++/5/iostream
DA:74,1
LF:1
LH:1
end_of_record
SF:/usr/include/c++/5/new
FN:129,_ZnwmPv
FN:135,_ZdlPvS_
FNDA:69571,_ZnwmPv
FNDA:0,_ZdlPvS_
FNF:2
FNH:1
DA:129,69571
DA:130,69571
DA:135,0
LF:3
LH:2
end_of_record
SF:/data/tzwang/graphics/ReduceGL/kkdev/Camera.h
FN:7,_ZN6CameraD0Ev
FN:7,_ZN6CameraD2Ev
FN:32,_ZN6CameraC2EP12GraphDrawLib4Enum
FN:54,_ZN6Camera9SetValuevE4EnumPf
FN:82,_ZN6Camera8SetValueE4Enumfff
FN:90,_ZN6Camera8SetValueE4Enumf
FN:125,_ZN6Camera6RenderEv
FNDA:0,_ZN6CameraD0Ev
FNDA:0,_ZN6CameraD2Ev
FNDA:1,_ZN6CameraC2EP12GraphDrawLib4Enum
FNDA:3,_ZN6Camera9SetValuevE4EnumPf
FNDA:3,_ZN6Camera8SetValueE4Enumfff
FNDA:4,_ZN6Camera8SetValueE4Enumf
FNDA:1,_ZN6Camera6RenderEv
FNF:7
FNH:5
DA:7,0
DA:32,1
DA:35,1
DA:36,1
DA:37,1
DA:38,1
DA:40,4
DA:42,3
DA:43,2
DA:44,3
DA:45,3
DA:46,3
DA:48,1
DA:49,1
DA:51,1
DA:54,3
DA:56,3
DA:59,3
DA:62,1
DA:63,1
DA:64,1
DA:66,1
DA:67,1
DA:68,1
DA:70,1
DA:71,1
DA:72,1
DA:74,0
DA:77,12
DA:78,9
DA:79,3
DA:82,3
DA:84,3
DA:86,3
DA:87,3
DA:90,4
DA:92,4
DA:95,1
DA:96,1
DA:97,1
DA:99,1
DA:100,1
DA:101,1
DA:103,1
DA:104,1
DA:105,1
DA:107,0
DA:109,0
DA:110,0
DA:112,0
DA:114,1
DA:116,1
DA:117,1
DA:119,1
DA:121,0
DA:123,4
DA:125,1
DA:127,1
DA:128,1
DA:129,1
DA:130,1
DA:131,1
DA:133,1
DA:135,1
DA:136,1
DA:138,1
DA:139,1
DA:141,1
DA:143,1
DA:144,5
DA:145,4
DA:146,2
DA:148,1
LF:73
LH:66
end_of_record
SF:/data/tzwang/graphics/ReduceGL/kkdev/Color.h
FN:8,_ZN5ColorD2Ev
FN:8,_ZN5ColorD0Ev
FN:48,_ZN5Color6RenderEv
FNDA:0,_ZN5ColorD0Ev
FNDA:0,_ZN5ColorD2Ev
FNDA:0,_ZN5Color6RenderEv
FNF:3
FNH:0
DA:8,0
DA:48,0
DA:49,0
DA:50,0
DA:51,0
DA:52,0
LF:6
LH:0
end_of_record
SF:/data/tzwang/graphics/ReduceGL/kkdev/GLViewer.h
FN:43,_ZN8GLViewerC2Ev
FN:57,_ZN8GLViewerD2Ev
FN:67,_ZN8GLViewer4InitEiPPc
FN:73,_ZN8GLViewer9CreateWinEPcii
FN:81,_ZN8GLViewer8SetValueE4EnumS0_
FN:100,_ZN8GLViewer4ShowEP4Node
FN:109,_ZN8GLViewer6GLInitEv
FN:116,_ZN8GLViewer8Display0Ev
FNDA:1,_ZN8GLViewerC2Ev
FNDA:0,_ZN8GLViewerD2Ev
FNDA:1,_ZN8GLViewer4InitEiPPc
FNDA:1,_ZN8GLViewer9CreateWinEPcii
FNDA:2,_ZN8GLViewer8SetValueE4EnumS0_
FNDA:1,_ZN8GLViewer4ShowEP4Node
FNDA:1,_ZN8GLViewer6GLInitEv
FNDA:1,_ZN8GLViewer8Display0Ev
FNF:8
FNH:7
DA:43,1
DA:47,1
DA:48,1
DA:50,1
DA:51,1
DA:52,1
DA:53,4
DA:54,3
DA:55,1
DA:57,0
DA:59,0
DA:61,0
DA:62,0
DA:64,0
DA:67,1
DA:70,1
DA:73,1
DA:75,1
DA:76,1
DA:77,1
DA:78,1
DA:81,2
DA:83,2
DA:86,1
DA:87,1
DA:88,0
DA:89,0
DA:90,1
DA:92,1
DA:93,1
DA:95,0
DA:97,2
DA:100,1
DA:102,1
DA:103,1
DA:105,1
DA:109,1
DA:111,1
DA:113,1
DA:116,1
DA:117,1
DA:119,1
DA:120,1
DA:123,1
LF:44
LH:36
end_of_record
SF:/data/tzwang/graphics/ReduceGL/kkdev/Geometry.h
FN:43,_ZN8GeometryC2Ev
FN:51,_ZN8GeometryD2Ev
FN:51,_ZN8GeometryD0Ev
FN:134,_ZN8Geometry11SetMaterialEP8Material
FN:172,_ZN8Geometry12SetTransformEP14Transformation
FN:184,_ZN8Geometry6RenderEv
FN:189,_ZN4LineD0Ev
FN:189,_ZN4LineD2Ev
FN:220,_ZN4Line6RenderEv
FN:243,_ZN4CubeD2Ev
FN:243,_ZN4CubeD0Ev
FN:261,_ZN4CubeC2Efff
FN:287,_ZN4Cube7PolygonEPh
FN:310,_ZN4Cube6RenderEv
FN:345,_ZN8CylinderD2Ev
FN:345,_ZN8CylinderD0Ev
FN:375,_ZN8Cylinder6RenderEv
FN:391,_ZN6SphereD0Ev
FN:391,_ZN6SphereD2Ev
FN:416,_ZN6Sphere6RenderEv
FN:435,_ZN7PolygonD0Ev
FN:435,_ZN7PolygonD2Ev
FN:438,_ZN7PolygonC2EP12GraphDrawLib
FN:448,_ZN7Polygon12SetVerticesvEPA3_fi
FN:459,_ZN7Polygon6RenderEv
FN:492,_Z11GetColorMatdddP12GraphDrawLib
FN:531,_ZN8StlShapeD0Ev
FN:531,_ZN8StlShapeD2Ev
FN:534,_ZN8StlShapeC2EP12GraphDrawLib
FN:544,_ZN8StlShape7LoadStlEPc
FN:560,_ZN8StlShape6RenderEv
FN:619,_ZN14TextureSurfaceD2Ev
FN:619,_ZN14TextureSurfaceD0Ev
FN:622,_ZN14TextureSurfaceC2Ev
FN:633,_ZN14TextureSurface12SetVerticesvEPA3_fi
FN:646,_ZN14TextureSurface6RenderEv
FNDA:5,_ZN8GeometryC2Ev
FNDA:0,_ZN8GeometryD0Ev
FNDA:0,_ZN8GeometryD2Ev
FNDA:5,_ZN8Geometry11SetMaterialEP8Material
FNDA:2,_ZN8Geometry12SetTransformEP14Transformation
FNDA:0,_ZN8Geometry6RenderEv
FNDA:0,_ZN4LineD0Ev
FNDA:0,_ZN4LineD2Ev
FNDA:0,_ZN4Line6RenderEv
FNDA:0,_ZN4CubeD0Ev
FNDA:0,_ZN4CubeD2Ev
FNDA:0,_ZN4CubeC2Efff
FNDA:0,_ZN4Cube7PolygonEPh
FNDA:0,_ZN4Cube6RenderEv
FNDA:0,_ZN8CylinderD0Ev
FNDA:0,_ZN8CylinderD2Ev
FNDA:0,_ZN8Cylinder6RenderEv
FNDA:0,_ZN6SphereD0Ev
FNDA:0,_ZN6SphereD2Ev
FNDA:0,_ZN6Sphere6RenderEv
FNDA:0,_ZN7PolygonD0Ev
FNDA:0,_ZN7PolygonD2Ev
FNDA:3,_ZN7PolygonC2EP12GraphDrawLib
FNDA:3,_ZN7Polygon12SetVerticesvEPA3_fi
FNDA:3,_ZN7Polygon6RenderEv
FNDA:5,_Z11GetColorMatdddP12GraphDrawLib
FNDA:0,_ZN8StlShapeD0Ev
FNDA:0,_ZN8StlShapeD2Ev
FNDA:1,_ZN8StlShapeC2EP12GraphDrawLib
FNDA:1,_ZN8StlShape7LoadStlEPc
FNDA:1,_ZN8StlShape6RenderEv
FNDA:0,_ZN14TextureSurfaceD0Ev
FNDA:0,_ZN14TextureSurfaceD2Ev
FNDA:1,_ZN14TextureSurfaceC2Ev
FNDA:1,_ZN14TextureSurface12SetVerticesvEPA3_fi
FNDA:0,_ZN14TextureSurface6RenderEv
FNF:36
FNH:12
DA:43,5
DA:45,5
DA:46,5
DA:47,5
DA:49,5
DA:51,0
DA:53,0
DA:55,0
DA:56,0
DA:58,0
DA:60,0
DA:61,0
DA:63,0
DA:65,0
DA:66,0
DA:69,0
DA:134,5
DA:136,5
DA:137,0
DA:138,5
DA:139,5
DA:140,5
DA:172,2
DA:174,2
DA:175,0
DA:177,2
DA:178,2
DA:179,2
DA:184,0
DA:186,0
DA:187,0
DA:189,0
DA:220,0
DA:222,0
DA:225,0
DA:226,0
DA:227,0
DA:228,0
DA:229,0
DA:230,0
DA:233,0
DA:234,0
DA:235,0
DA:236,0
DA:240,0
DA:243,0
DA:261,0
DA:263,0
DA:264,0
DA:287,0
DA:289,0
DA:290,0
DA:291,0
DA:292,0
DA:293,0
DA:294,0
DA:298,0
DA:300,0
DA:301,0
DA:302,0
DA:303,0
DA:304,0
DA:305,0
DA:307,0
DA:310,0
DA:312,0
DA:316,0
DA:317,0
DA:318,0
DA:319,0
DA:320,0
DA:321,0
DA:325,0
DA:328,0
DA:332,0
DA:334,0
DA:336,0
DA:337,0
DA:341,0
DA:345,0
DA:375,0
DA:377,0
DA:380,0
DA:381,0
DA:382,0
DA:383,0
DA:384,0
DA:385,0
DA:387,0
DA:391,0
DA:416,0
DA:418,0
DA:421,0
DA:422,0
DA:423,0
DA:424,0
DA:425,0
DA:426,0
DA:429,0
DA:433,0
DA:435,0
DA:438,3
DA:448,3
DA:451,3
DA:453,15
DA:454,48
DA:455,36
DA:456,3
DA:459,3
DA:462,3
DA:465,3
DA:466,0
DA:467,3
DA:468,3
DA:469,3
DA:470,0
DA:473,3
DA:474,3
DA:475,15
DA:476,12
DA:477,3
DA:481,3
DA:492,5
DA:496,5
DA:497,0
DA:498,5
DA:499,0
DA:501,5
DA:502,3
DA:503,3
DA:504,3
DA:505,2
DA:506,1
DA:507,1
DA:508,1
DA:510,1
DA:511,1
DA:512,1
DA:514,5
DA:515,5
DA:516,5
DA:518,5
DA:519,5
DA:520,5
DA:522,5
DA:524,5
DA:525,5
DA:526,5
DA:527,5
DA:528,5
DA:531,0
DA:534,1
DA:544,1
DA:550,1
DA:551,1
DA:554,1
DA:555,1
DA:560,1
DA:563,1
DA:566,1
DA:567,0
DA:568,1
DA:569,1
DA:570,1
DA:571,1
DA:574,1
DA:587,1
DA:588,69452
DA:591,277804
DA:594,208353
DA:596,416706
DA:597,208353
DA:598,416706
DA:607,1
DA:615,1
DA:619,0
DA:622,1
DA:633,1
DA:636,1
DA:638,5
DA:639,16
DA:640,12
DA:641,1
DA:646,0
DA:649,0
DA:651,0
DA:653,0
DA:654,0
DA:655,0
DA:656,0
DA:657,0
DA:658,0
DA:660,0
DA:663,0
DA:664,0
DA:666,0
DA:667,0
DA:669,0
DA:671,0
DA:672,0
DA:673,0
DA:674,0
DA:676,0
DA:677,0
DA:678,0
DA:681,0
LF:206
LH:90
end_of_record
SF:/data/tzwang/graphics/ReduceGL/kkdev/Light.h
FN:7,_ZN5LightD0Ev
FN:7,_ZN5LightD2Ev
FN:37,_ZN5LightC2EP12GraphDrawLib
FN:79,_ZN5Light6TurnOnEv
FN:91,_ZN5Light9SetValuevE4EnumPf
FN:129,_ZN5Light8SetValueE4Enumffff
FN:136,_ZN5Light8SetValueE4Enumfff
FN:143,_ZN5Light8SetValueE4Enumf
FN:161,_ZN5Light6RenderEv
FNDA:0,_ZN5LightD0Ev
FNDA:0,_ZN5LightD2Ev
FNDA:1,_ZN5LightC2EP12GraphDrawLib
FNDA:1,_ZN5Light6TurnOnEv
FNDA:2,_ZN5Light9SetValuevE4EnumPf
FNDA:1,_ZN5Light8SetValueE4Enumffff
FNDA:1,_ZN5Light8SetValueE4Enumfff
FNDA:1,_ZN5Light8SetValueE4Enumf
FNDA:1,_ZN5Light6RenderEv
FNF:9
FNH:7
DA:7,0
DA:37,1
DA:40,1
DA:41,8
DA:42,7
DA:44,1
DA:46,1
DA:49,1
DA:50,1
DA:52,0
DA:53,0
DA:55,0
DA:56,0
DA:58,0
DA:59,0
DA:61,0
DA:62,0
DA:64,0
DA:65,0
DA:67,0
DA:68,0
DA:70,0
DA:71,0
DA:73,0
DA:75,1
DA:76,1
DA:79,1
DA:81,1
DA:82,1
DA:91,2
DA:94,2
DA:96,2
DA:99,0
DA:100,0
DA:101,0
DA:103,0
DA:104,0
DA:105,0
DA:107,0
DA:108,0
DA:109,0
DA:111,1
DA:112,1
DA:113,1
DA:115,1
DA:116,1
DA:117,1
DA:119,0
DA:121,8
DA:122,6
DA:124,2
DA:125,1
DA:126,2
DA:129,1
DA:131,1
DA:132,1
DA:133,1
DA:136,1
DA:138,1
DA:139,1
DA:140,1
DA:143,1
DA:145,1
DA:148,0
DA:149,0
DA:150,0
DA:152,1
DA:153,1
DA:154,1
DA:156,0
DA:158,1
DA:161,1
DA:163,1
DA:164,1
DA:166,1
DA:167,1
DA:171,0
DA:172,0
DA:175,1
DA:176,0
DA:177,1
DA:178,0
DA:179,1
DA:180,0
DA:181,1
DA:182,1
DA:183,1
DA:184,1
DA:185,1
DA:186,1
DA:187,1
LF:91
LH:56
end_of_record
SF:/data/tzwang/graphics/ReduceGL/kkdev/LightOff.h
FN:7,_ZN7TurnOffD0Ev
FN:7,_ZN7TurnOffD2Ev
FN:24,_ZN7TurnOff6RenderEv
FNDA:0,_ZN7TurnOffD0Ev
FNDA:0,_ZN7TurnOffD2Ev
FNDA:0,_ZN7TurnOff6RenderEv
FNF:3
FNH:0
DA:7,0
DA:24,0
DA:26,0
DA:27,0
DA:28,0
LF:5
LH:0
end_of_record
SF:/data/tzwang/graphics/ReduceGL/kkdev/Material.h
FN:7,_ZN8MaterialD2Ev
FN:7,_ZN8MaterialD0Ev
FN:27,_ZN8MaterialC2EP12GraphDrawLib
FN:39,_ZN8Material9SetValuevE4EnumPf
FN:71,_ZN8Material8SetValueE4Enumffff
FN:79,_ZN8Material8SetValueE4Enumf
FN:89,_ZN8Material6RenderEv
FNDA:0,_ZN8MaterialD0Ev
FNDA:0,_ZN8MaterialD2Ev
FNDA:5,_ZN8MaterialC2EP12GraphDrawLib
FNDA:15,_ZN8Material9SetValuevE4EnumPf
FNDA:15,_ZN8Material8SetValueE4Enumffff
FNDA:5,_ZN8Material8SetValueE4Enumf
FNDA:4,_ZN8Material6RenderEv
FNF:7
FNH:5
DA:7,0
DA:27,5
DA:29,5
DA:32,30
DA:34,25
DA:36,5
DA:39,15
DA:41,15
DA:44,15
DA:47,5
DA:48,5
DA:49,5
DA:51,5
DA:52,5
DA:53,5
DA:55,5
DA:56,5
DA:57,5
DA:59,0
DA:60,0
DA:61,0
DA:63,0
DA:66,75
DA:67,60
DA:68,15
DA:71,15
DA:73,15
DA:75,15
DA:76,15
DA:79,5
DA:81,5
DA:83,5
DA:84,5
DA:86,5
DA:89,4
DA:90,4
DA:91,4
DA:92,4
DA:93,4
DA:94,4
DA:95,4
DA:96,4
DA:97,4
DA:98,0
DA:99,4
DA:100,4
DA:101,4
LF:47
LH:41
end_of_record
SF:/data/tzwang/graphics/ReduceGL/kkdev/Model3dRender.cpp
FN:6,_Z4trimRKNSt7__cxx1112basic_stringIcSt11char_traitsIcESaIcEEE
FN:23,_Z4initP12GraphDrawLib
FN:41,_Z7reshapeP12GraphDrawLibii
FN:76,_ZN10VWordModelC2EP12GraphDrawLib
FN:97,_ZN10VWordModelD2Ev
FN:105,_Z13ReadModelFileiPPc
FN:284,_Z7reshapeii
FN:300,main
FN:318,_Z41__static_initialization_and_destruction_0ii
FN:318,_GLOBAL__sub_I__ZN7ZBuffer8ZB_clearEiiiiii
FNDA:36,_Z4trimRKNSt7__cxx1112basic_stringIcSt11char_traitsIcESaIcEEE
FNDA:0,_Z4initP12GraphDrawLib
FNDA:0,_Z7reshapeP12GraphDrawLibii
FNDA:1,_ZN10VWordModelC2EP12GraphDrawLib
FNDA:0,_ZN10VWordModelD2Ev
FNDA:1,_Z13ReadModelFileiPPc
FNDA:1,_Z7reshapeii
FNDA:1,main
FNDA:1,_GLOBAL__sub_I__ZN7ZBuffer8ZB_clearEiiiiii
FNDA:1,_Z41__static_initialization_and_destruction_0ii
FNF:10
FNH:7
DA:6,36
DA:8,36
DA:9,36
DA:11,0
DA:13,36
DA:14,36
DA:16,36
DA:18,0
DA:23,0
DA:30,0
DA:31,0
DA:32,0
DA:33,0
DA:34,0
DA:37,0
DA:38,0
DA:41,0
DA:43,0
DA:45,0
DA:46,0
DA:47,0
DA:48,0
DA:49,0
DA:50,0
DA:51,0
DA:53,0
DA:76,1
DA:78,1
DA:79,1
DA:80,1
DA:83,1
DA:84,1
DA:85,1
DA:86,1
DA:87,1
DA:88,1
DA:89,1
DA:90,1
DA:92,4
DA:93,5
DA:94,8
DA:95,1
DA:97,0
DA:99,0
DA:100,0
DA:102,1
DA:103,1
DA:105,1
DA:107,1
DA:108,2
DA:109,1
DA:118,1
DA:121,1
DA:124,1
DA:131,2
DA:135,1
DA:137,1
DA:138,1
DA:139,1
DA:140,1
DA:144,1
DA:145,1
DA:146,1
DA:147,1
DA:148,1
DA:149,1
DA:150,1
DA:151,1
DA:155,1
DA:156,1
DA:157,1
DA:158,1
DA:159,1
DA:160,1
DA:161,1
DA:162,1
DA:163,1
DA:167,1
DA:168,1
DA:171,1
DA:172,1
DA:173,2
DA:174,1
DA:176,1
DA:177,2
DA:178,1
DA:183,1
DA:184,1
DA:185,1
DA:186,1
DA:190,1
DA:191,1
DA:192,1
DA:195,1
DA:201,1
DA:202,1
DA:204,0
DA:205,0
DA:206,0
DA:208,0
DA:209,0
DA:210,0
DA:211,0
DA:213,5
DA:215,4
DA:216,4
DA:217,4
DA:221,1
DA:223,1
DA:225,1
DA:226,1
DA:227,1
DA:231,2
DA:233,1
DA:238,2
DA:239,1
DA:240,1
DA:241,1
DA:242,1
DA:244,1
DA:245,1
DA:246,1
DA:248,1
DA:249,1
DA:250,1
DA:251,1
DA:252,1
DA:254,1
DA:256,1
DA:257,1
DA:259,1
DA:260,1
DA:261,1
DA:263,1
DA:264,1
DA:267,1
DA:268,1
DA:269,1
DA:274,1
DA:275,1
DA:279,1
DA:282,1
DA:284,1
DA:286,1
DA:288,0
DA:291,1
DA:293,1
DA:294,1
DA:295,1
DA:297,1
DA:298,1
DA:299,1
DA:300,1
DA:303,1
DA:304,1
DA:306,1
DA:307,1
DA:308,1
DA:309,1
DA:310,1
DA:312,1
DA:313,1
DA:315,1
DA:316,1
DA:317,1
DA:318,3
LF:166
LH:135
end_of_record
SF:/data/tzwang/graphics/ReduceGL/kkdev/Node.h
FN:31,_ZN4NodeC2Ev
FN:54,_ZN4Node8TraverseEv
FN:76,_ZN4Node8AddChildEPS_
FN:100,_ZN4NodeD0Ev
FN:100,_ZN4NodeD2Ev
FN:112,_ZN4Node8GetColorE4EnumPf
FN:153,_ZN4Node6RenderEv
FNDA:16,_ZN4NodeC2Ev
FNDA:8,_ZN4Node8TraverseEv
FNDA:7,_ZN4Node8AddChildEPS_
FNDA:0,_ZN4NodeD0Ev
FNDA:0,_ZN4NodeD2Ev
FNDA:1,_ZN4Node8GetColorE4EnumPf
FNDA:1,_ZN4Node6RenderEv
FNF:7
FNH:5
DA:31,16
DA:54,8
DA:56,8
DA:57,7
DA:59,8
DA:60,7
DA:61,8
DA:63,8
DA:65,3
DA:67,8
DA:68,7
DA:69,8
DA:71,4
DA:73,8
DA:76,7
DA:78,7
DA:79,3
DA:82,4
DA:83,4
DA:85,7
DA:87,7
DA:100,0
DA:102,0
DA:103,0
DA:104,0
DA:105,0
DA:106,0
DA:107,0
DA:108,0
DA:109,0
DA:112,1
DA:116,1
DA:119,0
DA:120,0
DA:122,0
DA:123,0
DA:125,0
DA:126,0
DA:128,0
DA:129,0
DA:131,0
DA:132,0
DA:134,0
DA:135,0
DA:137,0
DA:138,0
DA:140,0
DA:141,0
DA:143,1
DA:144,1
DA:147,0
DA:149,1
DA:153,1
DA:154,1
LF:54
LH:28
end_of_record
SF:/data/tzwang/graphics/ReduceGL/kkdev/Transformation.h
FN:7,_ZN14TransformationD0Ev
FN:7,_ZN14TransformationD2Ev
FN:26,_ZN14TransformationC2EP12GraphDrawLib
FN:36,_ZN14Transformation9SetValuevE4EnumPfi
FN:69,_ZN14Transformation8SetValueE4Enumfffi
FN:77,_ZN14Transformation8SetValueE4Enumffffi
FN:86,_ZN14Transformation6RenderEv
FNDA:0,_ZN14TransformationD0Ev
FNDA:0,_ZN14TransformationD2Ev
FNDA:3,_ZN14TransformationC2EP12GraphDrawLib
FNDA:6,_ZN14Transformation9SetValuevE4EnumPfi
FNDA:4,_ZN14Transformation8SetValueE4Enumfffi
FNDA:2,_ZN14Transformation8SetValueE4Enumffffi
FNDA:2,_ZN14Transformation6RenderEv
FNF:7
FNH:5
DA:7,0
DA:26,3
DA:29,3
DA:30,3
DA:31,33
DA:32,30
DA:33,3
DA:36,6
DA:41,6
DA:42,5
DA:44,6
DA:47,3
DA:49,3
DA:51,2
DA:53,2
DA:55,1
DA:57,1
DA:59,0
DA:62,24
DA:63,18
DA:64,6
DA:65,2
DA:66,6
DA:69,4
DA:71,4
DA:73,4
DA:74,4
DA:77,2
DA:80,2
DA:82,2
DA:83,2
DA:86,2
DA:90,2
DA:91,2
DA:92,8
DA:94,6
DA:97,6
DA:98,8
DA:99,2
DA:100,2
DA:102,3
DA:103,4
DA:104,1
DA:105,1
DA:106,1
DA:108,3
DA:109,4
DA:110,1
DA:111,1
DA:113,2
DA:116,2
LF:51
LH:49
end_of_record
SF:/data/tzwang/graphics/ReduceGL/kkdev/c24bitmap.h
FN:475,_ZN9C24BitMapC2Ev
FN:485,_ZN9C24BitMapD2Ev
FN:490,_ZN9C24BitMap7FormatFEii
FN:507,_ZN9C24BitMap4SaveEPc
FN:516,_ZN9C24BitMap4LoadEPc
FN:543,_Z13get_pix_colorR9C24BitMapii
FNDA:2,_ZN9C24BitMapC2Ev
FNDA:1,_ZN9C24BitMapD2Ev
FNDA:1,_ZN9C24BitMap7FormatFEii
FNDA:1,_ZN9C24BitMap4SaveEPc
FNDA:1,_ZN9C24BitMap4LoadEPc
FNDA:2560000,_Z13get_pix_colorR9C24BitMapii
FNF:6
FNH:6
DA:475,2
DA:477,2
DA:478,2
DA:479,2
DA:480,2
DA:481,2
DA:482,2
DA:483,2
DA:485,2
DA:487,1
DA:488,1
DA:490,1
DA:496,1
DA:498,1
DA:499,1
DA:500,1
DA:501,1
DA:502,1
DA:503,1
DA:504,1
DA:505,1
DA:507,1
DA:509,1
DA:510,1
DA:511,1
DA:512,1
DA:513,1
DA:514,1
DA:516,1
DA:518,1
DA:521,1
DA:523,1
DA:524,1
DA:528,1
DA:529,1
DA:531,1
DA:533,0
DA:534,0
DA:536,1
DA:537,1
DA:538,1
DA:539,1
DA:540,1
DA:543,2560000
DA:544,2560000
DA:546,2560000
DA:547,2560000
DA:554,2560000
LF:48
LH:46
end_of_record
SF:/data/tzwang/graphics/ReduceGL/kkdev/gl.h
FN:215,_ZN9GLSpecBuf8calc_bufEf
FN:297,_ZN7GLImageD2Ev
FN:297,_ZN7GLImageC2ERKS_
FN:297,_ZN7GLImageaSERKS_
FN:297,_ZN7GLImageC2Ev
FN:306,_ZN9GLTextureaSERKS_
FN:306,_ZN9GLTextureD2Ev
FN:306,_ZN9GLTextureC2ERKS_
FN:308,_ZN9GLTextureC2Ev
FN:319,_Z7gl_freePv
FN:324,_Z9gl_malloci
FN:349,_ZN11MatrixStackD2Ev
FN:349,_ZN11MatrixStackC2Ev
FN:362,_ZN11MatrixStack10pop_matrixEv
FN:368,_ZN11MatrixStack11push_matrixEv
FN:374,_ZN11MatrixStack18get_current_matrixEv
FN:379,_ZN11MatrixStack14set_stack_sizeEi
FN:386,_ZN9GLContextC2Ev
FN:386,_ZN9GLContextD2Ev
FN:485,_ZN9GLContext14glLoadIdentityEv
FN:492,_ZN9GLContext14glInitTexturesEPS_
FN:498,_ZN9GLContext12glMatrixModeEi
FN:503,_ZN9GLContext6glInitEii
FN:632,_ZN9GLContext12find_textureEPS_i
FN:649,_ZN9GLContext10glViewportEiiii
FN:691,_ZN9GLContext16glXSaveRenderImgEPc
FN:718,_ZN9GLContext18specbuf_get_bufferEif
FN:758,_ZN12GraphDrawLibC2Ev
FN:758,_ZN12GraphDrawLibD2Ev
FN:827,_Z21gl_draw_triangle_fillP9GLContextP8GLVertexS2_S2_
FN:854,_ZN12GraphDrawLib11InitDrawLibEii
FN:878,_Z18__gluMakeIdentityfPf
FN:893,_Z9normalizePf
FN:905,_Z5crossPfS_S_
FN:912,_ZN12GraphDrawLib9gluLookAtEddddddddd
FN:956,_ZN12GraphDrawLib7glCloseEv
FN:960,_ZN12GraphDrawLib16gl_matrix_updateEP9GLContext
FN:965,_ZN12GraphDrawLib16gl_eval_viewportEP9GLContext
FN:982,_ZN12GraphDrawLib10glVertex4fEffff
FN:1061,_ZN12GraphDrawLib10glVertex3fEfff
FN:1066,_ZN12GraphDrawLib11glVertex3fvEPf
FN:1073,_ZN12GraphDrawLib10glNormal3fEfff
FN:1086,_ZN12GraphDrawLib9glColor4fEffff
FN:1110,_ZN12GraphDrawLib9glColor3fEfff
FN:1118,_ZN12GraphDrawLib12glTexCoord4fEffff
FN:1127,_ZN12GraphDrawLib12glTexCoord2fEff
FN:1134,_ZN12GraphDrawLib16GL_EnableDisableEP9GLContextP7GLParam
FN:1170,_ZN12GraphDrawLib8glEnableEi
FN:1181,_ZN12GraphDrawLib9glDisableEi
FN:1193,_ZN12GraphDrawLib7glBeginEi
FN:1239,_ZN12GraphDrawLib5glEndEv
FN:1256,_ZN12GraphDrawLib12glMatrixModeEi
FN:1262,_ZN12GraphDrawLib14glLoadIdentityEv
FN:1269,_ZN12GraphDrawLib13glMultMatrixfEPKf
FN:1282,_ZN12GraphDrawLib12glPushMatrixEv
FN:1290,_ZN12GraphDrawLib11glPopMatrixEv
FN:1297,_ZN12GraphDrawLib9glRotatefEffff
FN:1369,_ZN12GraphDrawLib12glTranslatefEfff
FN:1387,_ZN12GraphDrawLib8glScalefEfff
FN:1403,_ZN12GraphDrawLib10glViewportEiiii
FN:1445,_ZN12GraphDrawLib9glFrustumEdddddd
FN:1472,_ZN12GraphDrawLib14gluPerspectiveEdddd
FN:1487,_ZN12GraphDrawLib11SetMaterialEP10GLMaterialiPf
FN:1514,_ZN12GraphDrawLib12glMaterialfvEiiPf
FN:1535,_ZN12GraphDrawLib11glMaterialfEiif
FN:1545,_ZN12GraphDrawLib9glLightfvEiiPf
FN:1623,_ZN12GraphDrawLib12glTexImage2DEiiiiiiiiPv
FN:1667,_ZN12GraphDrawLib13glBindTextureEii
FN:1695,_ZL11gl_clipcodeffff
FN:1708,_Z24gl_transform_to_viewportP9GLContextP8GLVertex
FN:1747,_Z19gl_vertex_transformP9GLContextP8GLVertex
FN:1801,_Z9clip_xminP2V4S0_S0_
FN:1819,_Z9clip_xmaxP2V4S0_S0_
FN:1836,_Z9clip_yminP2V4S0_S0_
FN:1853,_Z9clip_ymaxP2V4S0_S0_
FN:1868,_Z9clip_zminP2V4S0_S0_
FN:1882,_Z9clip_zmaxP2V4S0_S0_
FN:1906,_Z9updateTmpP9GLContextP8GLVertexS2_S2_f
FN:1932,_ZN12GraphDrawLib21gl_draw_triangle_clipEP9GLContextP8GLVertexS3_S3_i
FN:2006,_ZN12GraphDrawLib16gl_draw_triangleEP9GLContextP8GLVertexS3_S3_
FN:2061,_ZL6clampffff
FN:2068,_ZN12GraphDrawLib23gl_enable_disable_lightEP9GLContextii
FN:2085,_ZN12GraphDrawLib15gl_shade_vertexEP9GLContextP8GLVertex
FN:2209,_ZN12GraphDrawLib27gl_resizeImageNoInterpolateEPhiiS0_ii
FN:2245,_ZN12GraphDrawLib13glGenTexturesEiPj
FNDA:1,_ZN9GLSpecBuf8calc_bufEf
FNDA:22,_ZN7GLImageC2ERKS_
FNDA:11,_ZN7GLImageaSERKS_
FNDA:33,_ZN7GLImageD2Ev
FNDA:22,_ZN7GLImageC2Ev
FNDA:2,_ZN9GLTextureC2ERKS_
FNDA:1,_ZN9GLTextureaSERKS_
FNDA:3,_ZN9GLTextureD2Ev
FNDA:2,_ZN9GLTextureC2Ev
FNDA:0,_Z7gl_freePv
FNDA:3,_Z9gl_malloci
FNDA:0,_ZN11MatrixStackD2Ev
FNDA:3,_ZN11MatrixStackC2Ev
FNDA:7,_ZN11MatrixStack10pop_matrixEv
FNDA:7,_ZN11MatrixStack11push_matrixEv
FNDA:416754,_ZN11MatrixStack18get_current_matrixEv
FNDA:3,_ZN11MatrixStack14set_stack_sizeEi
FNDA:0,_ZN9GLContextD2Ev
FNDA:1,_ZN9GLContextC2Ev
FNDA:3,_ZN9GLContext14glLoadIdentityEv
FNDA:1,_ZN9GLContext14glInitTexturesEPS_
FNDA:3,_ZN9GLContext12glMatrixModeEi
FNDA:1,_ZN9GLContext6glInitEii
FNDA:1,_ZN9GLContext12find_textureEPS_i
FNDA:1,_ZN9GLContext10glViewportEiiii
FNDA:1,_ZN9GLContext16glXSaveRenderImgEPc
FNDA:85679,_ZN9GLContext18specbuf_get_bufferEif
FNDA:0,_ZN12GraphDrawLibD2Ev
FNDA:1,_ZN12GraphDrawLibC2Ev
FNDA:67445,_Z21gl_draw_triangle_fillP9GLContextP8GLVertexS2_S2_
FNDA:1,_ZN12GraphDrawLib11InitDrawLibEii
FNDA:1,_Z18__gluMakeIdentityfPf
FNDA:2,_Z9normalizePf
FNDA:2,_Z5crossPfS_S_
FNDA:1,_ZN12GraphDrawLib9gluLookAtEddddddddd
FNDA:1,_ZN12GraphDrawLib7glCloseEv
FNDA:26,_ZN12GraphDrawLib16gl_matrix_updateEP9GLContext
FNDA:1,_ZN12GraphDrawLib16gl_eval_viewportEP9GLContext
FNDA:208365,_ZN12GraphDrawLib10glVertex4fEffff
FNDA:208353,_ZN12GraphDrawLib10glVertex3fEfff
FNDA:12,_ZN12GraphDrawLib11glVertex3fvEPf
FNDA:208353,_ZN12GraphDrawLib10glNormal3fEfff
FNDA:0,_ZN12GraphDrawLib9glColor4fEffff
FNDA:0,_ZN12GraphDrawLib9glColor3fEfff
FNDA:0,_ZN12GraphDrawLib12glTexCoord4fEffff
FNDA:0,_ZN12GraphDrawLib12glTexCoord2fEff
FNDA:3,_ZN12GraphDrawLib16GL_EnableDisableEP9GLContextP7GLParam
FNDA:3,_ZN12GraphDrawLib8glEnableEi
FNDA:0,_ZN12GraphDrawLib9glDisableEi
FNDA:4,_ZN12GraphDrawLib7glBeginEi
FNDA:4,_ZN12GraphDrawLib5glEndEv
FNDA:4,_ZN12GraphDrawLib12glMatrixModeEi
FNDA:4,_ZN12GraphDrawLib14glLoadIdentityEv
FNDA:1,_ZN12GraphDrawLib13glMultMatrixfEPKf
FNDA:7,_ZN12GraphDrawLib12glPushMatrixEv
FNDA:7,_ZN12GraphDrawLib11glPopMatrixEv
FNDA:1,_ZN12GraphDrawLib9glRotatefEffff
FNDA:3,_ZN12GraphDrawLib12glTranslatefEfff
FNDA:1,_ZN12GraphDrawLib8glScalefEfff
FNDA:1,_ZN12GraphDrawLib10glViewportEiiii
FNDA:2,_ZN12GraphDrawLib9glFrustumEdddddd
FNDA:2,_ZN12GraphDrawLib14gluPerspectiveEdddd
FNDA:32,_ZN12GraphDrawLib11SetMaterialEP10GLMaterialiPf
FNDA:16,_ZN12GraphDrawLib12glMaterialfvEiiPf
FNDA:4,_ZN12GraphDrawLib11glMaterialfEiif
FNDA:3,_ZN12GraphDrawLib9glLightfvEiiPf
FNDA:0,_ZN12GraphDrawLib12glTexImage2DEiiiiiiiiPv
FNDA:0,_ZN12GraphDrawLib13glBindTextureEii
FNDA:208383,_ZL11gl_clipcodeffff
FNDA:208373,_Z24gl_transform_to_viewportP9GLContextP8GLVertex
FNDA:208365,_Z19gl_vertex_transformP9GLContextP8GLVertex
FNDA:8,_Z9clip_xminP2V4S0_S0_
FNDA:4,_Z9clip_xmaxP2V4S0_S0_
FNDA:0,_Z9clip_yminP2V4S0_S0_
FNDA:6,_Z9clip_ymaxP2V4S0_S0_
FNDA:0,_Z9clip_zminP2V4S0_S0_
FNDA:0,_Z9clip_zmaxP2V4S0_S0_
FNDA:18,_Z9updateTmpP9GLContextP8GLVertexS2_S2_f
FNDA:19,_ZN12GraphDrawLib21gl_draw_triangle_clipEP9GLContextP8GLVertexS3_S3_i
FNDA:69467,_ZN12GraphDrawLib16gl_draw_triangleEP9GLContextP8GLVertexS3_S3_
FNDA:833460,_ZL6clampffff
FNDA:1,_ZN12GraphDrawLib23gl_enable_disable_lightEP9GLContextii
FNDA:208365,_ZN12GraphDrawLib15gl_shade_vertexEP9GLContextP8GLVertex
FNDA:0,_ZN12GraphDrawLib27gl_resizeImageNoInterpolateEPhiiS0_ii
FNDA:0,_ZN12GraphDrawLib13glGenTexturesEiPj
FNF:85
FNH:69
DA:215,1
DA:217,1
DA:220,1
DA:221,1
DA:222,1026
DA:223,1025
DA:224,1025
DA:226,1
DA:297,88
DA:306,6
DA:308,2
DA:319,0
DA:321,0
DA:322,0
DA:324,3
DA:326,3
DA:327,3
DA:328,3
DA:349,3
DA:362,7
DA:364,7
DA:365,7
DA:366,7
DA:368,7
DA:370,7
DA:371,7
DA:372,7
DA:374,416754
DA:376,416754
DA:379,3
DA:381,3
DA:382,3
DA:383,3
DA:386,1
DA:485,3
DA:488,3
DA:489,3
DA:491,3
DA:492,1
DA:494,1
DA:495,1
DA:496,1
DA:498,3
DA:500,3
DA:501,3
DA:503,1
DA:509,1
DA:510,1
DA:511,1
DA:514,1
DA:515,1
DA:516,1
DA:517,1
DA:518,1
DA:519,1
DA:524,17
DA:525,16
DA:526,16
DA:527,16
DA:528,16
DA:529,16
DA:530,16
DA:531,16
DA:532,16
DA:533,16
DA:534,16
DA:535,16
DA:536,16
DA:537,16
DA:538,16
DA:540,1
DA:541,1
DA:542,1
DA:543,1
DA:544,1
DA:547,3
DA:548,2
DA:549,2
DA:550,2
DA:551,2
DA:552,2
DA:553,2
DA:555,1
DA:556,1
DA:557,1
DA:560,1
DA:563,1
DA:564,1
DA:565,1
DA:566,1
DA:567,1
DA:568,1
DA:569,1
DA:571,1
DA:572,1
DA:573,1
DA:574,1
DA:576,1
DA:578,1
DA:579,1
DA:580,1
DA:581,1
DA:583,1
DA:584,1
DA:586,1
DA:587,1
DA:588,1
DA:589,1
DA:592,1
DA:593,1
DA:594,1
DA:595,1
DA:596,1
DA:601,1
DA:602,1
DA:603,1
DA:604,1
DA:605,1
DA:606,1
DA:607,1
DA:609,1
DA:610,1
DA:611,1
DA:612,1
DA:613,1
DA:614,1
DA:616,1
DA:621,1
DA:624,1
DA:625,1
DA:626,1
DA:629,1
DA:630,1
DA:632,1
DA:635,2
DA:638,1
DA:639,0
DA:642,1
DA:643,1
DA:645,2
DA:649,1
DA:656,1
DA:657,1
DA:658,1
DA:662,2
DA:663,2
DA:664,1
DA:665,0
DA:667,1
DA:668,1
DA:670,1
DA:671,0
DA:672,0
DA:675,1
DA:676,1
DA:677,1
DA:678,0
DA:683,1
DA:684,1
DA:685,1
DA:686,1
DA:688,1
DA:690,1
DA:691,1
DA:694,2
DA:695,1
DA:697,1601
DA:699,1600
DA:700,1600
DA:701,2561600
DA:703,2560000
DA:705,2560000
DA:706,2560000
DA:707,2560000
DA:710,1
DA:713,1
DA:718,85679
DA:722,85679
DA:723,85679
DA:724,0
DA:725,0
DA:727,0
DA:729,85679
DA:730,85678
DA:731,85678
DA:733,1
DA:735,1
DA:736,1
DA:737,0
DA:739,1
DA:740,1
DA:741,1
DA:742,1
DA:743,1
DA:744,1
DA:745,1
DA:749,0
DA:750,0
DA:751,0
DA:752,0
DA:758,1
DA:827,67445
DA:832,67445
DA:834,0
DA:835,0
DA:836,67445
DA:837,67445
DA:839,67445
DA:854,1
DA:857,1
DA:858,1
DA:861,1
DA:862,1
DA:864,1
DA:865,1
DA:866,1
DA:867,1
DA:868,1
DA:869,1
DA:871,1
DA:873,1
DA:874,1
DA:876,1
DA:878,1
DA:880,1
DA:881,1
DA:882,1
DA:883,1
DA:884,1
DA:893,2
DA:897,2
DA:898,2
DA:900,2
DA:901,2
DA:902,2
DA:905,2
DA:907,2
DA:908,2
DA:909,2
DA:910,2
DA:912,1
DA:920,1
DA:921,1
DA:922,1
DA:924,1
DA:925,1
DA:926,1
DA:928,1
DA:931,1
DA:932,1
DA:935,1
DA:937,1
DA:938,1
DA:939,1
DA:940,1
DA:942,1
DA:943,1
DA:944,1
DA:946,1
DA:947,1
DA:948,1
DA:950,1
DA:951,1
DA:952,1
DA:956,1
DA:957,1
DA:960,26
DA:962,26
DA:963,26
DA:965,1
DA:968,1
DA:969,1
DA:971,1
DA:973,1
DA:974,1
DA:975,1
DA:977,1
DA:978,1
DA:979,1
DA:980,1
DA:982,208365
DA:984,208365
DA:989,208365
DA:991,208365
DA:992,208365
DA:993,208365
DA:994,208365
DA:998,208365
DA:999,208365
DA:1001,208365
DA:1002,208365
DA:1003,208365
DA:1004,208365
DA:1006,208365
DA:1010,208365
DA:1011,208365
DA:1013,0
DA:1018,208365
DA:1019,0
DA:1020,0
DA:1022,0
DA:1026,208365
DA:1027,208359
DA:1031,208365
DA:1033,208365
DA:1037,208353
DA:1038,69451
DA:1039,69451
DA:1041,208353
DA:1044,0
DA:1045,0
DA:1046,0
DA:1047,0
DA:1048,0
DA:1049,0
DA:1050,0
DA:1052,0
DA:1056,208365
DA:1058,208365
DA:1061,208353
DA:1063,208353
DA:1064,208353
DA:1066,12
DA:1068,12
DA:1069,12
DA:1073,208353
DA:1075,208353
DA:1076,208353
DA:1077,208353
DA:1078,208353
DA:1079,208353
DA:1080,208353
DA:1086,0
DA:1088,0
DA:1090,0
DA:1091,0
DA:1092,0
DA:1093,0
DA:1094,0
DA:1095,0
DA:1096,0
DA:1097,0
DA:1098,0
DA:1099,0
DA:1101,0
DA:1103,0
DA:1104,0
DA:1106,0
DA:1110,0
DA:1112,0
DA:1113,0
DA:1118,0
DA:1120,0
DA:1121,0
DA:1122,0
DA:1123,0
DA:1124,0
DA:1125,0
DA:1127,0
DA:1129,0
DA:1130,0
DA:1134,3
DA:1136,3
DA:1137,3
DA:1139,3
DA:1141,0
DA:1142,0
DA:1144,1
DA:1145,1
DA:1147,0
DA:1148,0
DA:1150,0
DA:1151,0
DA:1153,0
DA:1154,0
DA:1156,1
DA:1157,1
DA:1160,1
DA:1161,1
DA:1163,1
DA:1165,3
DA:1170,3
DA:1174,3
DA:1176,3
DA:1177,3
DA:1179,3
DA:1181,0
DA:1185,0
DA:1187,0
DA:1188,0
DA:1189,0
DA:1193,4
DA:1195,4
DA:1198,4
DA:1200,4
DA:1202,4
DA:1203,4
DA:1204,4
DA:1205,4
DA:1206,4
DA:1208,4
DA:1210,4
DA:1212,4
DA:1213,4
DA:1215,0
DA:1217,0
DA:1219,0
DA:1221,0
DA:1222,0
DA:1223,0
DA:1227,4
DA:1229,4
DA:1232,4
DA:1233,1
DA:1234,1
DA:1237,4
DA:1239,4
DA:1241,4
DA:1242,4
DA:1244,4
DA:1245,3
DA:1246,15
DA:1247,6
DA:1248,6
DA:1251,4
DA:1252,4
DA:1256,4
DA:1258,4
DA:1259,4
DA:1260,4
DA:1262,4
DA:1264,4
DA:1265,4
DA:1266,4
DA:1267,4
DA:1269,1
DA:1271,1
DA:1272,1
DA:1273,1
DA:1274,1
DA:1277,1
DA:1279,1
DA:1280,1
DA:1282,7
DA:1284,7
DA:1285,7
DA:1286,7
DA:1287,7
DA:1290,7
DA:1292,7
DA:1293,7
DA:1294,7
DA:1295,7
DA:1297,1
DA:1299,1
DA:1301,1
DA:1306,1
DA:1307,1
DA:1308,1
DA:1309,1
DA:1312,1
DA:1314,1
DA:1316,1
DA:1317,1
DA:1319,0
DA:1320,0
DA:1321,0
DA:1323,0
DA:1324,0
DA:1325,0
DA:1327,0
DA:1328,0
DA:1329,0
DA:1335,0
DA:1336,0
DA:1337,0
DA:1338,0
DA:1339,0
DA:1340,0
DA:1343,0
DA:1344,0
DA:1347,0
DA:1348,0
DA:1349,0
DA:1352,0
DA:1353,0
DA:1354,0
DA:1355,0
DA:1356,0
DA:1357,0
DA:1358,0
DA:1359,0
DA:1360,0
DA:1364,1
DA:1366,1
DA:1369,3
DA:1371,3
DA:1374,3
DA:1376,3
DA:1377,3
DA:1378,3
DA:1379,3
DA:1381,3
DA:1384,3
DA:1385,3
DA:1387,1
DA:1389,1
DA:1391,1
DA:1393,1
DA:1394,1
DA:1395,1
DA:1396,1
DA:1397,1
DA:1399,1
DA:1400,1
DA:1403,1
DA:1405,1
DA:1409,1
DA:1410,1
DA:1411,1
DA:1415,2
DA:1416,2
DA:1417,2
DA:1418,1
DA:1420,0
DA:1421,0
DA:1423,0
DA:1424,0
DA:1425,0
DA:1428,0
DA:1429,0
DA:1430,0
DA:1431,0
DA:1435,0
DA:1436,0
DA:1437,0
DA:1438,0
DA:1440,0
DA:1442,1
DA:1445,2
DA:1448,2
DA:1450,2
DA:1454,2
DA:1455,2
DA:1456,2
DA:1457,2
DA:1458,2
DA:1459,2
DA:1461,2
DA:1462,2
DA:1463,2
DA:1464,2
DA:1465,2
DA:1467,2
DA:1469,2
DA:1470,2
DA:1472,2
DA:1477,2
DA:1478,2
DA:1480,2
DA:1481,2
DA:1483,2
DA:1484,2
DA:1487,32
DA:1489,32
DA:1491,0
DA:1492,0
DA:1494,8
DA:1495,8
DA:1497,8
DA:1498,8
DA:1500,8
DA:1501,8
DA:1503,8
DA:1504,8
DA:1505,8
DA:1507,0
DA:1508,0
DA:1509,0
DA:1511,0
DA:1513,32
DA:1514,16
DA:1516,16
DA:1518,16
DA:1520,0
DA:1522,16
DA:1524,0
DA:1528,16
DA:1529,16
DA:1533,16
DA:1535,4
DA:1537,4
DA:1538,4
DA:1539,4
DA:1540,4
DA:1541,4
DA:1545,3
DA:1546,3
DA:1550,3
DA:1552,3
DA:1556,3
DA:1558,3
DA:1560,3
DA:1562,3
DA:1564,0
DA:1565,0
DA:1567,0
DA:1568,0
DA:1570,0
DA:1571,0
DA:1575,1
DA:1577,1
DA:1579,1
DA:1580,0
DA:1581,0
DA:1582,0
DA:1584,0
DA:1587,1
DA:1589,4
DA:1590,3
DA:1591,3
DA:1593,1
DA:1594,1
DA:1596,0
DA:1597,0
DA:1600,1
DA:1601,1
DA:1602,1
DA:1603,1
DA:1605,1
DA:1607,0
DA:1608,0
DA:1610,0
DA:1611,0
DA:1613,0
DA:1614,0
DA:1616,0
DA:1618,3
DA:1623,0
DA:1627,0
DA:1634,0
DA:1635,0
DA:1636,0
DA:1637,0
DA:1640,0
DA:1641,0
DA:1642,0
DA:1644,0
DA:1645,0
DA:1646,0
DA:1647,0
DA:1649,0
DA:1652,0
DA:1653,0
DA:1654,0
DA:1656,0
DA:1658,0
DA:1660,0
DA:1661,0
DA:1667,0
DA:1669,0
DA:1673,0
DA:1675,0
DA:1676,0
DA:1677,0
DA:1695,208383
DA:1699,208383
DA:1700,416766
DA:1701,416766
DA:1702,416766
DA:1703,416766
DA:1704,208383
DA:1705,208383
DA:1708,208373
DA:1713,208373
DA:1714,208373
DA:1715,208373
DA:1716,208373
DA:1717,208373
DA:1718,208373
DA:1719,208373
DA:1721,208373
DA:1722,208373
DA:1723,208373
DA:1724,208373
DA:1725,208373
DA:1726,208373
DA:1727,208373
DA:1730,0
DA:1731,0
DA:1732,0
DA:1737,208373
DA:1738,0
DA:1739,0
DA:1740,0
DA:1741,0
DA:1743,208373
DA:1747,208365
DA:1752,208365
DA:1755,208365
DA:1756,416730
DA:1757,416730
DA:1758,416730
DA:1759,416730
DA:1760,416730
DA:1761,416730
DA:1762,416730
DA:1763,416730
DA:1767,208365
DA:1768,416730
DA:1769,416730
DA:1770,416730
DA:1771,416730
DA:1772,416730
DA:1773,416730
DA:1774,416730
DA:1775,416730
DA:1777,208365
DA:1778,208365
DA:1780,208365
DA:1781,208365
DA:1782,208365
DA:1784,208365
DA:1785,0
DA:1789,208365
DA:1790,208365
DA:1801,8
DA:1803,8
DA:1804,8
DA:1805,8
DA:1806,8
DA:1807,8
DA:1808,8
DA:1809,0
DA:1811,8
DA:1812,8
DA:1813,8
DA:1814,8
DA:1815,8
DA:1816,8
DA:1819,4
DA:1820,4
DA:1821,4
DA:1822,4
DA:1823,4
DA:1824,4
DA:1825,4
DA:1826,0
DA:1828,4
DA:1829,4
DA:1830,4
DA:1831,4
DA:1832,4
DA:1833,4
DA:1836,0
DA:1837,0
DA:1838,0
DA:1839,0
DA:1840,0
DA:1841,0
DA:1842,0
DA:1843,0
DA:1845,0
DA:1846,0
DA:1847,0
DA:1848,0
DA:1849,0
DA:1850,0
DA:1853,6
DA:1854,6
DA:1855,6
DA:1856,6
DA:1857,6
DA:1858,6
DA:1859,6
DA:1860,6
DA:1861,6
DA:1862,6
DA:1863,6
DA:1864,6
DA:1865,6
DA:1868,0
DA:1869,0
DA:1870,0
DA:1871,0
DA:1872,0
DA:1873,0
DA:1874,0
DA:1875,0
DA:1876,0
DA:1877,0
DA:1878,0
DA:1879,0
DA:1880,0
DA:1882,0
DA:1883,0
DA:1884,0
DA:1885,0
DA:1886,0
DA:1887,0
DA:1888,0
DA:1889,0
DA:1890,0
DA:1891,0
DA:1892,0
DA:1893,0
DA:1894,0
DA:1906,18
DA:1909,18
DA:1910,18
DA:1911,18
DA:1912,18
DA:1914,0
DA:1915,0
DA:1916,0
DA:1919,18
DA:1920,0
DA:1921,0
DA:1924,18
DA:1925,18
DA:1926,14
DA:1927,18
DA:1932,19
DA:1939,19
DA:1941,19
DA:1942,19
DA:1943,10
DA:1945,9
DA:1947,9
DA:1950,25
DA:1951,8
DA:1955,9
DA:1958,9
DA:1959,9
DA:1961,9
DA:1964,4
DA:1965,2
DA:1966,2
DA:1968,4
DA:1969,4
DA:1971,4
DA:1972,4
DA:1974,4
DA:1975,4
DA:1976,4
DA:1977,4
DA:1979,4
DA:1980,4
DA:1981,4
DA:1982,4
DA:1986,5
DA:1987,4
DA:1988,1
DA:1990,5
DA:1991,5
DA:1993,5
DA:1994,5
DA:1996,5
DA:1997,5
DA:1998,5
DA:2006,69467
DA:2012,69467
DA:2013,69467
DA:2014,69467
DA:2016,69467
DA:2019,69467
DA:2021,69461
DA:2022,69461
DA:2024,71477
DA:2026,67445
DA:2027,67445
DA:2030,67445
DA:2032,0
DA:2033,0
DA:2034,0
DA:2035,0
DA:2036,0
DA:2037,0
DA:2039,0
DA:2043,67445
DA:2044,30671
DA:2046,36774
DA:2050,6
DA:2051,6
DA:2052,6
DA:2061,833460
DA:2063,833460
DA:2064,833460
DA:2065,833460
DA:2068,1
DA:2070,1
DA:2071,1
DA:2072,1
DA:2073,1
DA:2074,1
DA:2075,1
DA:2076,0
DA:2077,0
DA:2078,0
DA:2079,0
DA:2080,0
DA:2082,1
DA:2085,208365
DA:2092,208365
DA:2094,208365
DA:2096,208365
DA:2097,208365
DA:2098,208365
DA:2100,208365
DA:2101,208365
DA:2102,208365
DA:2103,208365
DA:2105,416730
DA:2109,208365
DA:2110,208365
DA:2111,208365
DA:2113,208365
DA:2115,0
DA:2116,0
DA:2117,0
DA:2118,0
DA:2121,208365
DA:2122,208365
DA:2123,208365
DA:2124,208365
DA:2125,208365
DA:2126,208365
DA:2127,208365
DA:2128,208365
DA:2129,208365
DA:2131,416730
DA:2132,416730
DA:2134,208365
DA:2135,208365
DA:2136,208365
DA:2138,95299
DA:2139,95299
DA:2140,95299
DA:2143,95299
DA:2144,0
DA:2145,0
DA:2146,0
DA:2147,0
DA:2148,0
DA:2150,0
DA:2153,0
DA:2154,0
DA:2161,95299
DA:2163,0
DA:2164,0
DA:2165,0
DA:2166,0
DA:2167,0
DA:2168,0
DA:2169,0
DA:2171,95299
DA:2172,95299
DA:2173,95299
DA:2175,95299
DA:2176,95299
DA:2177,95299
DA:2180,85679
DA:2181,85679
DA:2182,85679
DA:2188,85679
DA:2189,85679
DA:2190,85679
DA:2191,85679
DA:2192,85679
DA:2193,85679
DA:2194,85679
DA:2198,208365
DA:2199,208365
DA:2200,208365
DA:2203,208365
DA:2204,208365
DA:2205,208365
DA:2206,208365
DA:2207,208365
DA:2209,0
DA:2218,0
DA:2219,0
DA:2221,0
DA:2222,0
DA:2224,0
DA:2225,0
DA:2226,0
DA:2227,0
DA:2228,0
DA:2229,0
DA:2230,0
DA:2232,0
DA:2233,0
DA:2234,0
DA:2236,0
DA:2237,0
DA:2239,0
DA:2241,0
DA:2245,0
DA:2247,0
DA:2249,0
DA:2250,0
DA:2251,0
DA:2253,0
LF:1004
LH:718
end_of_record
SF:/data/tzwang/graphics/ReduceGL/kkdev/read_cfg.h
FN:22,_Z8readFilePKcRNSt7__cxx1112basic_stringIcSt11char_traitsIcESaIcEEE
FN:39,_Z11splitStringRKNSt7__cxx1112basic_stringIcSt11char_traitsIcESaIcEEERSt6vectorIS4_SaIS4_EES6_
FN:70,_Z12readlistfilePKcRSt6vectorINSt7__cxx1112basic_stringIcSt11char_traitsIcESaIcEEESaIS7_EE
FNDA:1,_Z8readFilePKcRNSt7__cxx1112basic_stringIcSt11char_traitsIcESaIcEEE
FNDA:6,_Z11splitStringRKNSt7__cxx1112basic_stringIcSt11char_traitsIcESaIcEEERSt6vectorIS4_SaIS4_EES6_
FNDA:1,_Z12readlistfilePKcRSt6vectorINSt7__cxx1112basic_stringIcSt11char_traitsIcESaIcEEESaIS7_EE
FNF:3
FNH:3
DA:22,1
DA:24,1
DA:25,2
DA:26,1
DA:27,1
DA:28,0
DA:30,1
DA:32,11
DA:33,5
DA:34,5
DA:36,1
DA:39,6
DA:42,6
DA:43,6
DA:44,94
DA:45,88
DA:47,44
DA:48,4
DA:50,44
DA:51,44
DA:52,44
DA:53,44
DA:55,6
DA:56,5
DA:58,6
DA:70,1
DA:72,2
DA:73,1
DA:74,1
DA:75,0
DA:77,1
DA:79,1
LF:32
LH:30
end_of_record
SF:/data/tzwang/graphics/ReduceGL/kkdev/readstl.h
FN:28,_Z7Add3DPt5vec3dS_
FN:37,_ZplRK5vec3dS1_
FN:55,_Z20read_binary_STL_fileNSt7__cxx1112basic_stringIcSt11char_traitsIcESaIcEEERSt6vectorI8triangleSaIS6_EERdSA_SA_SA_SA_SA_
FN:158,_Z19read_ascii_STL_fileNSt7__cxx1112basic_stringIcSt11char_traitsIcESaIcEEERSt6vectorI8triangleSaIS6_EERdSA_SA_SA_SA_SA_
FN:269,_Z19getStlGeometryInputPcRSt6vectorI8triangleSaIS1_EERdS5_S5_S5_S5_S5_
FNDA:0,_Z7Add3DPt5vec3dS_
FNDA:0,_ZplRK5vec3dS1_
FNDA:1,_Z20read_binary_STL_fileNSt7__cxx1112basic_stringIcSt11char_traitsIcESaIcEEERSt6vectorI8triangleSaIS6_EERdSA_SA_SA_SA_SA_
FNDA:0,_Z19read_ascii_STL_fileNSt7__cxx1112basic_stringIcSt11char_traitsIcESaIcEEERSt6vectorI8triangleSaIS6_EERdSA_SA_SA_SA_SA_
FNDA:1,_Z19getStlGeometryInputPcRSt6vectorI8triangleSaIS1_EERdS5_S5_S5_S5_S5_
FNF:5
FNH:2
DA:28,0
DA:31,0
DA:32,0
DA:33,0
DA:34,0
DA:37,0
DA:39,0
DA:55,1
DA:59,2
DA:62,2
DA:67,1
DA:71,1
DA:73,0
DA:74,0
DA:78,1
DA:82,1
DA:92,1
DA:93,1
DA:94,1
DA:99,69452
DA:102,69451
DA:103,69451
DA:104,69451
DA:107,69451
DA:108,69451
DA:109,69451
DA:112,69451
DA:113,69451
DA:114,69451
DA:117,69451
DA:118,69451
DA:119,69451
DA:122,69451
DA:125,69451
DA:126,69451
DA:127,69451
DA:128,69451
DA:129,69451
DA:130,69451
DA:133,69451
DA:134,69451
DA:135,69451
DA:136,69451
DA:137,69451
DA:138,69451
DA:141,69451
DA:142,69451
DA:143,69451
DA:144,69451
DA:145,69451
DA:146,69451
DA:149,69451
DA:153,1
DA:155,1
DA:158,0
DA:162,0
DA:165,0
DA:169,0
DA:173,0
DA:175,0
DA:176,0
DA:182,0
DA:188,0
DA:189,0
DA:192,0
DA:196,0
DA:197,0
DA:198,0
DA:201,0
DA:204,0
DA:206,0
DA:209,0
DA:212,0
DA:213,0
DA:216,0
DA:217,0
DA:220,0
DA:221,0
DA:224,0
DA:225,0
DA:228,0
DA:229,0
DA:230,0
DA:231,0
DA:232,0
DA:233,0
DA:236,0
DA:237,0
DA:238,0
DA:239,0
DA:240,0
DA:241,0
DA:244,0
DA:245,0
DA:246,0
DA:247,0
DA:248,0
DA:249,0
DA:252,0
DA:255,0
DA:258,0
DA:263,0
DA:265,0
DA:269,1
DA:277,2
DA:282,1
DA:285,1
DA:288,1
DA:292,1
DA:294,1
DA:296,1
DA:297,1
DA:298,1
DA:301,513
DA:303,256
DA:305,99
DA:307,256
DA:311,1
DA:314,1
DA:317,1
DA:319,2
DA:321,1
DA:323,1
DA:327,0
DA:332,1
DA:335,1
DA:339,0
DA:342,0
DA:344,0
DA:349,1
DA:353,1
DA:356,1
DA:358,0
DA:362,1
DA:364,0
DA:365,0
DA:369,1
DA:372,1
DA:373,1
DA:374,1
DA:375,1
DA:376,1
DA:378,1
LF:143
LH:78
end_of_record
SF:/data/tzwang/graphics/ReduceGL/kkdev/zbuffer.h
FN:82,_ZN7ZBuffer7ZB_openEiiiiPhPiPv
FN:141,_ZN7ZBuffer13ZB_setTextureEPh
FN:159,_Z10PUT_PIXELKiRdS_PhPdRjS2_S2_RiS3_S3_S3_
FN:177,_ZN7ZBuffer8ZB_clearEiiiiii
FN:195,_ZN7ZBuffer21ZB_fillTriangleSmoothEP12ZBufferPointS1_S1_
FN:448,_Z13PUT_PIXEL_TEXiPhRdS0_S_PdRjS2_RiS3_S3_
FN:468,_ZN7ZBuffer33ZB_fillTriangleMappingPerspectiveEP12ZBufferPointS1_S1_
FNDA:1,_ZN7ZBuffer7ZB_openEiiiiPhPiPv
FNDA:0,_ZN7ZBuffer13ZB_setTextureEPh
FNDA:752445,_Z10PUT_PIXELKiRdS_PhPdRjS2_S2_RiS3_S3_S3_
FNDA:0,_ZN7ZBuffer8ZB_clearEiiiiii
FNDA:67445,_ZN7ZBuffer21ZB_fillTriangleSmoothEP12ZBufferPointS1_S1_
FNDA:0,_Z13PUT_PIXEL_TEXiPhRdS0_S_PdRjS2_RiS3_S3_
FNDA:0,_ZN7ZBuffer33ZB_fillTriangleMappingPerspectiveEP12ZBufferPointS1_S1_
FNF:7
FNH:3
DA:82,1
DA:88,1
DA:93,1
DA:94,0
DA:96,1
DA:97,1
DA:98,1
DA:99,1
DA:102,1
DA:105,1
DA:107,1
DA:108,1
DA:109,0
DA:111,1
DA:112,1
DA:113,1
DA:114,0
DA:115,0
DA:117,1
DA:119,0
DA:120,0
DA:123,1
DA:125,1
DA:127,0
DA:128,0
DA:141,0
DA:143,0
DA:144,0
DA:159,752445
DA:164,752445
DA:165,752445
DA:166,366014
DA:167,366014
DA:168,366014
DA:169,366014
DA:171,752445
DA:172,752445
DA:173,752445
DA:174,752445
DA:175,752445
DA:177,0
DA:184,0
DA:185,0
DA:187,0
DA:188,0
DA:189,0
DA:190,0
DA:191,0
DA:194,0
DA:195,67445
DA:199,67445
DA:224,67445
DA:225,34923
DA:226,34923
DA:227,34923
DA:229,67445
DA:230,23195
DA:231,23195
DA:232,23195
DA:233,23195
DA:234,44250
DA:235,16512
DA:236,16512
DA:237,16512
DA:242,67445
DA:243,67445
DA:245,67445
DA:246,67445
DA:248,67445
DA:249,67445
DA:250,0
DA:251,67445
DA:253,67445
DA:254,67445
DA:255,67445
DA:256,67445
DA:259,67445
DA:260,67445
DA:261,67445
DA:262,67445
DA:264,67445
DA:265,67445
DA:266,67445
DA:267,67445
DA:269,67445
DA:270,67445
DA:271,67445
DA:272,67445
DA:274,67445
DA:275,67445
DA:276,67445
DA:277,67445
DA:282,67445
DA:283,67445
DA:287,202335
DA:288,134890
DA:289,67445
DA:290,33819
DA:291,33819
DA:292,33819
DA:293,33819
DA:294,33819
DA:295,33819
DA:297,33626
DA:298,33626
DA:299,33626
DA:300,33626
DA:301,33626
DA:302,33626
DA:304,67445
DA:307,67445
DA:308,33819
DA:309,33819
DA:310,33819
DA:311,33819
DA:313,33626
DA:314,33626
DA:315,33626
DA:316,33626
DA:318,67445
DA:323,134890
DA:324,101071
DA:325,101071
DA:326,101071
DA:327,87818
DA:329,13253
DA:330,101071
DA:331,101071
DA:332,101071
DA:333,101071
DA:334,101071
DA:336,101071
DA:337,101071
DA:338,101071
DA:340,101071
DA:341,101071
DA:342,101071
DA:344,101071
DA:345,101071
DA:346,101071
DA:348,101071
DA:349,101071
DA:350,101071
DA:357,134890
DA:358,101264
DA:359,101264
DA:360,101264
DA:361,87799
DA:363,13465
DA:364,101264
DA:369,924426
DA:370,394768
DA:380,394768
DA:381,394768
DA:383,394768
DA:384,394768
DA:386,394768
DA:387,394768
DA:388,394768
DA:391,1899658
DA:392,752445
DA:394,752445
DA:396,752445
DA:397,752445
DA:401,394768
DA:402,394768
DA:403,154634
DA:404,154634
DA:406,154634
DA:408,154634
DA:409,154634
DA:410,154634
DA:414,240134
DA:416,240134
DA:418,240134
DA:419,240134
DA:420,240134
DA:426,394768
DA:429,394768
DA:430,394768
DA:448,0
DA:454,0
DA:455,0
DA:456,0
DA:457,0
DA:458,0
DA:459,0
DA:460,0
DA:462,0
DA:463,0
DA:464,0
DA:465,0
DA:468,0
DA:471,0
DA:514,0
DA:515,0
DA:516,0
DA:517,0
DA:519,0
DA:520,0
DA:521,0
DA:522,0
DA:523,0
DA:524,0
DA:525,0
DA:526,0
DA:527,0
DA:532,0
DA:533,0
DA:535,0
DA:536,0
DA:538,0
DA:539,0
DA:540,0
DA:541,0
DA:543,0
DA:544,0
DA:545,0
DA:546,0
DA:549,0
DA:550,0
DA:551,0
DA:552,0
DA:560,0
DA:561,0
DA:562,0
DA:563,0
DA:564,0
DA:565,0
DA:566,0
DA:567,0
DA:568,0
DA:570,0
DA:571,0
DA:572,0
DA:573,0
DA:575,0
DA:576,0
DA:577,0
DA:578,0
DA:583,0
DA:584,0
DA:589,0
DA:590,0
DA:591,0
DA:592,0
DA:593,0
DA:598,0
DA:599,0
DA:600,0
DA:601,0
DA:602,0
DA:603,0
DA:604,0
DA:605,0
DA:606,0
DA:608,0
DA:609,0
DA:610,0
DA:611,0
DA:612,0
DA:613,0
DA:615,0
DA:618,0
DA:619,0
DA:620,0
DA:621,0
DA:622,0
DA:624,0
DA:625,0
DA:626,0
DA:627,0
DA:629,0
DA:634,0
DA:635,0
DA:636,0
DA:637,0
DA:638,0
DA:640,0
DA:641,0
DA:642,0
DA:643,0
DA:644,0
DA:645,0
DA:648,0
DA:649,0
DA:650,0
DA:654,0
DA:655,0
DA:656,0
DA:658,0
DA:659,0
DA:660,0
DA:666,0
DA:667,0
DA:668,0
DA:669,0
DA:670,0
DA:672,0
DA:673,0
DA:678,0
DA:679,0
DA:688,0
DA:689,0
DA:690,0
DA:691,0
DA:692,0
DA:693,0
DA:694,0
DA:695,0
DA:696,0
DA:699,0
DA:700,0
DA:701,0
DA:702,0
DA:703,0
DA:704,0
DA:705,0
DA:706,0
DA:708,0
DA:709,0
DA:710,0
DA:711,0
DA:712,0
DA:713,0
DA:714,0
DA:715,0
DA:716,0
DA:717,0
DA:718,0
DA:719,0
DA:720,0
DA:724,0
DA:725,0
DA:726,0
DA:727,0
DA:728,0
DA:729,0
DA:731,0
DA:732,0
DA:733,0
DA:734,0
DA:735,0
DA:740,0
DA:741,0
DA:742,0
DA:743,0
DA:745,0
DA:749,0
DA:750,0
DA:753,0
DA:755,0
DA:759,0
DA:760,0
DA:765,0
DA:768,0
DA:769,0
LF:357
LH:159
end_of_record
SF:/data/tzwang/graphics/ReduceGL/kkdev/zmath.h
FN:33,_ZN2M4C2Ev
FN:56,_Z10gl_V3_NormP2V3
FN:67,_Z9gl_V3_Newfff
FN:76,_Z9gl_V4_Newffff
FN:91,_ZN2M48gl_M4_IdEPS_
FN:99,_ZN2M410gl_M4_IsIdEPS_
FN:111,_ZN2M49gl_M4_MulEPS_S0_S0_
FN:124,_ZN2M413gl_M4_MulLeftEPS_S0_
FN:142,_ZN2M410gl_M4_MoveEPS_S0_
FN:157,_ZN2M411gl_M4_MulV4EP2V4PS_S1_
FN:166,_ZN2M415gl_M4_TransposeEPS_S0_
FN:207,_Z10Matrix_InvPfS_i
FN:267,_ZN2M49gl_M4_InvEPS_S0_
FN:275,_ZN2M412gl_M4_RotateEPS_fi
FNDA:30,_ZN2M4C2Ev
FNDA:1,_Z10gl_V3_NormP2V3
FNDA:48,_Z9gl_V3_Newfff
FNDA:73,_Z9gl_V4_Newffff
FNDA:8,_ZN2M48gl_M4_IdEPS_
FNDA:4,_ZN2M410gl_M4_IsIdEPS_
FNDA:0,_ZN2M49gl_M4_MulEPS_S0_S0_
FNDA:8,_ZN2M413gl_M4_MulLeftEPS_S0_
FNDA:7,_ZN2M410gl_M4_MoveEPS_S0_
FNDA:1,_ZN2M411gl_M4_MulV4EP2V4PS_S1_
FNDA:5,_ZN2M415gl_M4_TransposeEPS_S0_
FNDA:4,_Z10Matrix_InvPfS_i
FNDA:4,_ZN2M49gl_M4_InvEPS_S0_
FNDA:0,_ZN2M412gl_M4_RotateEPS_fi
FNF:14
FNH:12
DA:33,30
DA:56,1
DA:59,1
DA:60,1
DA:61,1
DA:62,1
DA:63,1
DA:64,1
DA:67,48
DA:70,48
DA:71,48
DA:72,48
DA:73,48
DA:76,73
DA:79,73
DA:80,73
DA:81,73
DA:82,73
DA:83,73
DA:91,8
DA:94,40
DA:95,160
DA:96,128
DA:97,8
DA:99,4
DA:102,20
DA:103,80
DA:104,64
DA:105,16
DA:106,48
DA:108,4
DA:111,0
DA:115,0
DA:116,0
DA:117,0
DA:118,0
DA:119,0
DA:121,0
DA:124,8
DA:128,8
DA:132,8
DA:134,40
DA:135,160
DA:136,128
DA:137,128
DA:138,128
DA:140,8
DA:142,7
DA:144,7
DA:145,7
DA:157,1
DA:159,1
DA:160,1
DA:161,1
DA:162,1
DA:163,1
DA:166,5
DA:168,5
DA:169,5
DA:170,5
DA:171,5
DA:173,5
DA:174,5
DA:175,5
DA:176,5
DA:178,5
DA:179,5
DA:180,5
DA:181,5
DA:183,5
DA:184,5
DA:185,5
DA:186,5
DA:187,5
DA:207,4
DA:213,4
DA:214,4
DA:216,20
DA:219,16
DA:220,16
DA:221,40
DA:222,24
DA:223,0
DA:224,0
DA:228,16
DA:232,16
DA:233,0
DA:234,0
DA:235,0
DA:236,0
DA:238,0
DA:239,0
DA:240,0
DA:245,16
DA:246,80
DA:247,64
DA:248,64
DA:252,80
DA:253,48
DA:254,240
DA:255,192
DA:256,192
DA:261,4
DA:267,4
DA:269,4
DA:270,4
DA:272,4
DA:273,4
DA:275,0
DA:279,0
DA:280,0
DA:281,0
DA:282,0
DA:283,0
DA:284,0
DA:285,0
DA:286,0
LF:117
LH:92
end_of_record
