TN:
SF:/usr/include/c++/5/bits/stl_algobase.h
FN:219,_ZSt3maxImERKT_S2_S2_
FN:282,_ZSt12__niter_baseIP13tMaterialInfoENSt11_Niter_baseIT_E13iterator_typeES3_
FN:282,_ZSt12__niter_baseIP9t3DObjectENSt11_Niter_baseIT_E13iterator_typeES3_
FN:293,_ZSt12__miter_baseIP9t3DObjectENSt11_Miter_baseIT_E13iterator_typeES3_
FN:293,_ZSt12__miter_baseIP13tMaterialInfoENSt11_Miter_baseIT_E13iterator_typeES3_
FN:373,_ZNSt11__copy_moveILb0ELb1ESt26random_access_iterator_tagE8__copy_mI13tMaterialInfoEEPT_PKS4_S7_S5_
FN:373,_ZNSt11__copy_moveILb0ELb1ESt26random_access_iterator_tagE8__copy_mI9t3DObjectEEPT_PKS4_S7_S5_
FN:391,_ZSt13__copy_move_aILb0EP9t3DObjectS1_ET1_T0_S3_S2_
FN:391,_ZSt13__copy_move_aILb0EP13tMaterialInfoS1_ET1_T0_S3_S2_
FN:436,_ZSt14__copy_move_a2ILb0EP13tMaterialInfoS1_ET1_T0_S3_S2_
FN:436,_ZSt14__copy_move_a2ILb0EP9t3DObjectS1_ET1_T0_S3_S2_
FN:462,_ZSt4copyIP9t3DObjectS1_ET0_T_S3_S2_
FN:462,_ZSt4copyIP13tMaterialInfoS1_ET0_T_S3_S2_
FN:575,_ZNSt20__copy_move_backwardILb0ELb1ESt26random_access_iterator_tagE13__copy_move_bI9t3DObjectEEPT_PKS4_S7_S5_
FN:575,_ZNSt20__copy_move_backwardILb0ELb1ESt26random_access_iterator_tagE13__copy_move_bI13tMaterialInfoEEPT_PKS4_S7_S5_
FN:593,_ZSt22__copy_move_backward_aILb0EP13tMaterialInfoS1_ET1_T0_S3_S2_
FN:593,_ZSt22__copy_move_backward_aILb0EP9t3DObjectS1_ET1_T0_S3_S2_
FN:611,_ZSt23__copy_move_backward_a2ILb0EP9t3DObjectS1_ET1_T0_S3_S2_
FN:611,_ZSt23__copy_move_backward_a2ILb0EP13tMaterialInfoS1_ET1_T0_S3_S2_
FN:638,_ZSt13copy_backwardIP13tMaterialInfoS1_ET0_T_S3_S2_
FN:638,_ZSt13copy_backwardIP9t3DObjectS1_ET0_T_S3_S2_
FNDA:23,_ZSt3maxImERKT_S2_S2_
FNDA:6,_ZSt12__niter_baseIP9t3DObjectENSt11_Niter_baseIT_E13iterator_typeES3_
FNDA:6,_ZSt12__niter_baseIP13tMaterialInfoENSt11_Niter_baseIT_E13iterator_typeES3_
FNDA:4,_ZSt12__miter_baseIP9t3DObjectENSt11_Miter_baseIT_E13iterator_typeES3_
FNDA:4,_ZSt12__miter_baseIP13tMaterialInfoENSt11_Miter_baseIT_E13iterator_typeES3_
FNDA:2,_ZNSt11__copy_moveILb0ELb1ESt26random_access_iterator_tagE8__copy_mI9t3DObjectEEPT_PKS4_S7_S5_
FNDA:2,_ZNSt11__copy_moveILb0ELb1ESt26random_access_iterator_tagE8__copy_mI13tMaterialInfoEEPT_PKS4_S7_S5_
FNDA:2,_ZSt13__copy_move_aILb0EP9t3DObjectS1_ET1_T0_S3_S2_
FNDA:2,_ZSt13__copy_move_aILb0EP13tMaterialInfoS1_ET1_T0_S3_S2_
FNDA:2,_ZSt14__copy_move_a2ILb0EP9t3DObjectS1_ET1_T0_S3_S2_
FNDA:2,_ZSt14__copy_move_a2ILb0EP13tMaterialInfoS1_ET1_T0_S3_S2_
FNDA:2,_ZSt4copyIP9t3DObjectS1_ET0_T_S3_S2_
FNDA:2,_ZSt4copyIP13tMaterialInfoS1_ET0_T_S3_S2_
FNDA:0,_ZNSt20__copy_move_backwardILb0ELb1ESt26random_access_iterator_tagE13__copy_move_bI9t3DObjectEEPT_PKS4_S7_S5_
FNDA:0,_ZNSt20__copy_move_backwardILb0ELb1ESt26random_access_iterator_tagE13__copy_move_bI13tMaterialInfoEEPT_PKS4_S7_S5_
FNDA:0,_ZSt22__copy_move_backward_aILb0EP9t3DObjectS1_ET1_T0_S3_S2_
FNDA:0,_ZSt22__copy_move_backward_aILb0EP13tMaterialInfoS1_ET1_T0_S3_S2_
FNDA:0,_ZSt23__copy_move_backward_a2ILb0EP9t3DObjectS1_ET1_T0_S3_S2_
FNDA:0,_ZSt23__copy_move_backward_a2ILb0EP13tMaterialInfoS1_ET1_T0_S3_S2_
FNDA:0,_ZSt13copy_backwardIP9t3DObjectS1_ET0_T_S3_S2_
FNDA:0,_ZSt13copy_backwardIP13tMaterialInfoS1_ET0_T_S3_S2_
FNF:21
FNH:13
DA:219,23
DA:224,23
DA:225,6
DA:226,17
DA:282,12
DA:283,12
DA:293,8
DA:294,8
DA:373,4
DA:382,4
DA:383,4
DA:384,0
DA:385,4
DA:391,4
DA:399,4
DA:402,4
DA:436,4
DA:438,4
DA:440,4
DA:462,4
DA:471,4
DA:472,4
DA:575,0
DA:584,0
DA:585,0
DA:586,0
DA:587,0
DA:593,0
DA:601,0
DA:606,0
DA:611,0
DA:614,0
DA:615,0
DA:638,0
DA:649,0
DA:650,0
LF:36
LH:21
end_of_record
SF:/usr/include/c++/5/bits/stl_construct.h
FN:112,_ZNSt12_Destroy_auxILb1EE9__destroyIP9t3DObjectEEvT_S4_
FN:112,_ZNSt12_Destroy_auxILb1EE9__destroyIP13tMaterialInfoEEvT_S4_
FN:122,_ZSt8_DestroyIP13tMaterialInfoEvT_S2_
FN:122,_ZSt8_DestroyIP9t3DObjectEvT_S2_
FN:148,_ZSt8_DestroyIP13tMaterialInfoS0_EvT_S2_RSaIT0_E
FN:148,_ZSt8_DestroyIP9t3DObjectS0_EvT_S2_RSaIT0_E
FNDA:2,_ZNSt12_Destroy_auxILb1EE9__destroyIP9t3DObjectEEvT_S4_
FNDA:2,_ZNSt12_Destroy_auxILb1EE9__destroyIP13tMaterialInfoEEvT_S4_
FNDA:2,_ZSt8_DestroyIP9t3DObjectEvT_S2_
FNDA:2,_ZSt8_DestroyIP13tMaterialInfoEvT_S2_
FNDA:2,_ZSt8_DestroyIP9t3DObjectS0_EvT_S2_RSaIT0_E
FNDA:2,_ZSt8_DestroyIP13tMaterialInfoS0_EvT_S2_RSaIT0_E
FNF:6
FNH:6
DA:112,4
DA:122,4
DA:126,4
DA:128,4
DA:148,4
DA:151,4
DA:152,4
LF:7
LH:7
end_of_record
SF:/usr/include/c++/5/bits/stl_iterator.h
FN:740,_ZN9__gnu_cxx17__normal_iteratorIP13tMaterialInfoSt6vectorIS1_SaIS1_EEEC2ERKS2_
FN:740,_ZN9__gnu_cxx17__normal_iteratorIP9t3DObjectSt6vectorIS1_SaIS1_EEEC2ERKS2_
FN:753,_ZNK9__gnu_cxx17__normal_iteratorIP9t3DObjectSt6vectorIS1_SaIS1_EEEdeEv
FN:753,_ZNK9__gnu_cxx17__normal_iteratorIP13tMaterialInfoSt6vectorIS1_SaIS1_EEEdeEv
FN:805,_ZNK9__gnu_cxx17__normal_iteratorIP9t3DObjectSt6vectorIS1_SaIS1_EEE4baseEv
FN:805,_ZNK9__gnu_cxx17__normal_iteratorIP13tMaterialInfoSt6vectorIS1_SaIS1_EEE4baseEv
FN:923,_ZN9__gnu_cxxmiIP9t3DObjectSt6vectorIS1_SaIS1_EEEENS_17__normal_iteratorIT_T0_E15difference_typeERKS9_SC_
FN:923,_ZN9__gnu_cxxmiIP13tMaterialInfoSt6vectorIS1_SaIS1_EEEENS_17__normal_iteratorIT_T0_E15difference_typeERKS9_SC_
FNDA:2,_ZN9__gnu_cxx17__normal_iteratorIP9t3DObjectSt6vectorIS1_SaIS1_EEEC2ERKS2_
FNDA:2,_ZN9__gnu_cxx17__normal_iteratorIP13tMaterialInfoSt6vectorIS1_SaIS1_EEEC2ERKS2_
FNDA:0,_ZNK9__gnu_cxx17__normal_iteratorIP9t3DObjectSt6vectorIS1_SaIS1_EEEdeEv
FNDA:0,_ZNK9__gnu_cxx17__normal_iteratorIP13tMaterialInfoSt6vectorIS1_SaIS1_EEEdeEv
FNDA:4,_ZNK9__gnu_cxx17__normal_iteratorIP9t3DObjectSt6vectorIS1_SaIS1_EEE4baseEv
FNDA:4,_ZNK9__gnu_cxx17__normal_iteratorIP13tMaterialInfoSt6vectorIS1_SaIS1_EEE4baseEv
FNDA:1,_ZN9__gnu_cxxmiIP9t3DObjectSt6vectorIS1_SaIS1_EEEENS_17__normal_iteratorIT_T0_E15difference_typeERKS9_SC_
FNDA:1,_ZN9__gnu_cxxmiIP13tMaterialInfoSt6vectorIS1_SaIS1_EEEENS_17__normal_iteratorIT_T0_E15difference_typeERKS9_SC_
FNF:8
FNH:6
DA:740,4
DA:741,4
DA:753,0
DA:754,0
DA:805,8
DA:806,8
DA:923,2
DA:926,2
LF:8
LH:6
end_of_record
SF:/usr/include/c++/5/bits/stl_iterator_base_types.h
FN:215,_ZNSt10_Iter_baseIP13tMaterialInfoLb0EE7_S_baseES1_
FN:215,_ZNSt10_Iter_baseIP9t3DObjectLb0EE7_S_baseES1_
FNDA:10,_ZNSt10_Iter_baseIP9t3DObjectLb0EE7_S_baseES1_
FNDA:10,_ZNSt10_Iter_baseIP13tMaterialInfoLb0EE7_S_baseES1_
FNF:2
FNH:2
DA:215,20
DA:216,20
LF:2
LH:2
end_of_record
SF:/usr/include/c++/5/bits/stl_uninitialized.h
FN:91,_ZNSt20__uninitialized_copyILb1EE13__uninit_copyIP13tMaterialInfoS3_EET0_T_S5_S4_
FN:91,_ZNSt20__uninitialized_copyILb1EE13__uninit_copyIP9t3DObjectS3_EET0_T_S5_S4_
FN:107,_ZSt18uninitialized_copyIP9t3DObjectS1_ET0_T_S3_S2_
FN:107,_ZSt18uninitialized_copyIP13tMaterialInfoS1_ET0_T_S3_S2_
FN:279,_ZSt22__uninitialized_copy_aIP13tMaterialInfoS1_S0_ET0_T_S3_S2_RSaIT1_E
FN:279,_ZSt22__uninitialized_copy_aIP9t3DObjectS1_S0_ET0_T_S3_S2_RSaIT1_E
FN:297,_ZSt34__uninitialized_move_if_noexcept_aIP13tMaterialInfoS1_SaIS0_EET0_T_S4_S3_RT1_
FN:297,_ZSt34__uninitialized_move_if_noexcept_aIP9t3DObjectS1_SaIS0_EET0_T_S4_S3_RT1_
FNDA:2,_ZNSt20__uninitialized_copyILb1EE13__uninit_copyIP9t3DObjectS3_EET0_T_S5_S4_
FNDA:2,_ZNSt20__uninitialized_copyILb1EE13__uninit_copyIP13tMaterialInfoS3_EET0_T_S5_S4_
FNDA:2,_ZSt18uninitialized_copyIP9t3DObjectS1_ET0_T_S3_S2_
FNDA:2,_ZSt18uninitialized_copyIP13tMaterialInfoS1_ET0_T_S3_S2_
FNDA:2,_ZSt22__uninitialized_copy_aIP9t3DObjectS1_S0_ET0_T_S3_S2_RSaIT1_E
FNDA:2,_ZSt22__uninitialized_copy_aIP13tMaterialInfoS1_S0_ET0_T_S3_S2_RSaIT1_E
FNDA:2,_ZSt34__uninitialized_move_if_noexcept_aIP9t3DObjectS1_SaIS0_EET0_T_S4_S3_RT1_
FNDA:2,_ZSt34__uninitialized_move_if_noexcept_aIP13tMaterialInfoS1_SaIS0_EET0_T_S4_S3_RT1_
FNF:8
FNH:8
DA:91,4
DA:93,4
DA:107,4
DA:115,4
DA:126,4
DA:279,4
DA:281,4
DA:297,4
DA:304,4
LF:9
LH:9
end_of_record
SF:/usr/include/c++/5/bits/stl_vector.h
FN:113,_ZNSt12_Vector_baseI9t3DObjectSaIS0_EE19_M_get_Tp_allocatorEv
FN:113,_ZNSt12_Vector_baseI13tMaterialInfoSaIS0_EE19_M_get_Tp_allocatorEv
FN:117,_ZNKSt12_Vector_baseI9t3DObjectSaIS0_EE19_M_get_Tp_allocatorEv
FN:117,_ZNKSt12_Vector_baseI13tMaterialInfoSaIS0_EE19_M_get_Tp_allocatorEv
FN:167,_ZNSt12_Vector_baseI9t3DObjectSaIS0_EE11_M_allocateEm
FN:167,_ZNSt12_Vector_baseI13tMaterialInfoSaIS0_EE11_M_allocateEm
FN:174,_ZNSt12_Vector_baseI13tMaterialInfoSaIS0_EE13_M_deallocateEPS0_m
FN:174,_ZNSt12_Vector_baseI9t3DObjectSaIS0_EE13_M_deallocateEPS0_m
FN:547,_ZNSt6vectorI13tMaterialInfoSaIS0_EE5beginEv
FN:547,_ZNSt6vectorI9t3DObjectSaIS0_EE5beginEv
FN:565,_ZNSt6vectorI9t3DObjectSaIS0_EE3endEv
FN:565,_ZNSt6vectorI13tMaterialInfoSaIS0_EE3endEv
FN:654,_ZNKSt6vectorI9t3DObjectSaIS0_EE4sizeEv
FN:654,_ZNKSt6vectorI13tMaterialInfoSaIS0_EE4sizeEv
FN:659,_ZNKSt6vectorI13tMaterialInfoSaIS0_EE8max_sizeEv
FN:659,_ZNKSt6vectorI9t3DObjectSaIS0_EE8max_sizeEv
FN:779,_ZNSt6vectorI13tMaterialInfoSaIS0_EEixEm
FN:779,_ZNSt6vectorI9t3DObjectSaIS0_EEixEm
FN:913,_ZNSt6vectorI13tMaterialInfoSaIS0_EE9push_backERKS0_
FN:913,_ZNSt6vectorI9t3DObjectSaIS0_EE9push_backERKS0_
FN:1422,_ZNKSt6vectorI13tMaterialInfoSaIS0_EE12_M_check_lenEmPKc
FN:1422,_ZNKSt6vectorI9t3DObjectSaIS0_EE12_M_check_lenEmPKc
FNDA:4,_ZNSt12_Vector_baseI9t3DObjectSaIS0_EE19_M_get_Tp_allocatorEv
FNDA:4,_ZNSt12_Vector_baseI13tMaterialInfoSaIS0_EE19_M_get_Tp_allocatorEv
FNDA:2,_ZNKSt12_Vector_baseI9t3DObjectSaIS0_EE19_M_get_Tp_allocatorEv
FNDA:2,_ZNKSt12_Vector_baseI13tMaterialInfoSaIS0_EE19_M_get_Tp_allocatorEv
FNDA:1,_ZNSt12_Vector_baseI9t3DObjectSaIS0_EE11_M_allocateEm
FNDA:1,_ZNSt12_Vector_baseI13tMaterialInfoSaIS0_EE11_M_allocateEm
FNDA:2,_ZNSt12_Vector_baseI9t3DObjectSaIS0_EE13_M_deallocateEPS0_m
FNDA:2,_ZNSt12_Vector_baseI13tMaterialInfoSaIS0_EE13_M_deallocateEPS0_m
FNDA:1,_ZNSt6vectorI9t3DObjectSaIS0_EE5beginEv
FNDA:1,_ZNSt6vectorI13tMaterialInfoSaIS0_EE5beginEv
FNDA:1,_ZNSt6vectorI9t3DObjectSaIS0_EE3endEv
FNDA:1,_ZNSt6vectorI13tMaterialInfoSaIS0_EE3endEv
FNDA:5,_ZNKSt6vectorI9t3DObjectSaIS0_EE4sizeEv
FNDA:4,_ZNKSt6vectorI13tMaterialInfoSaIS0_EE4sizeEv
FNDA:2,_ZNKSt6vectorI9t3DObjectSaIS0_EE8max_sizeEv
FNDA:2,_ZNKSt6vectorI13tMaterialInfoSaIS0_EE8max_sizeEv
FNDA:8,_ZNSt6vectorI13tMaterialInfoSaIS0_EEixEm
FNDA:5,_ZNSt6vectorI9t3DObjectSaIS0_EEixEm
FNDA:1,_ZNSt6vectorI9t3DObjectSaIS0_EE9push_backERKS0_
FNDA:1,_ZNSt6vectorI13tMaterialInfoSaIS0_EE9push_backERKS0_
FNDA:1,_ZNKSt6vectorI9t3DObjectSaIS0_EE12_M_check_lenEmPKc
FNDA:1,_ZNKSt6vectorI13tMaterialInfoSaIS0_EE12_M_check_lenEmPKc
FNF:22
FNH:22
DA:113,8
DA:114,8
DA:117,4
DA:118,4
DA:167,2
DA:170,2
DA:174,4
DA:177,4
DA:178,2
DA:179,4
DA:547,2
DA:548,2
DA:565,2
DA:566,2
DA:654,9
DA:655,9
DA:659,4
DA:660,4
DA:779,13
DA:780,13
DA:913,2
DA:915,2
DA:917,0
DA:919,0
DA:925,2
DA:927,2
DA:1422,2
DA:1424,2
DA:1425,0
DA:1427,2
DA:1428,2
LF:31
LH:28
end_of_record
SF:/usr/include/c++/5/bits/vector.tcc
FN:326,_ZNSt6vectorI9t3DObjectSaIS0_EE13_M_insert_auxEN9__gnu_cxx17__normal_iteratorIPS0_S2_EERKS0_
FN:326,_ZNSt6vectorI13tMaterialInfoSaIS0_EE13_M_insert_auxEN9__gnu_cxx17__normal_iteratorIPS0_S2_EERKS0_
FNDA:1,_ZNSt6vectorI9t3DObjectSaIS0_EE13_M_insert_auxEN9__gnu_cxx17__normal_iteratorIPS0_S2_EERKS0_
FNDA:1,_ZNSt6vectorI13tMaterialInfoSaIS0_EE13_M_insert_auxEN9__gnu_cxx17__normal_iteratorIPS0_S2_EERKS0_
FNF:2
FNH:2
DA:326,2
DA:330,2
DA:332,0
DA:333,0
DA:335,0
DA:337,0
DA:339,0
DA:343,0
DA:351,2
DA:352,2
DA:353,2
DA:354,2
DA:361,2
DA:368,2
DA:370,2
DA:372,2
DA:373,2
DA:375,2
DA:377,2
DA:379,2
DA:380,2
DA:382,0
DA:384,0
DA:385,0
DA:388,0
DA:389,0
DA:390,0
DA:392,2
DA:393,2
DA:394,4
DA:396,4
DA:397,2
DA:398,2
DA:399,2
DA:401,2
LF:35
LH:23
end_of_record
SF:/usr/include/c++/5/ext/alloc_traits.h
FN:181,_ZN9__gnu_cxx14__alloc_traitsISaI13tMaterialInfoEE8allocateERS2_m
FN:181,_ZN9__gnu_cxx14__alloc_traitsISaI9t3DObjectEE8allocateERS2_m
FN:184,_ZN9__gnu_cxx14__alloc_traitsISaI9t3DObjectEE10deallocateERS2_PS1_m
FN:184,_ZN9__gnu_cxx14__alloc_traitsISaI13tMaterialInfoEE10deallocateERS2_PS1_m
FN:188,_ZN9__gnu_cxx14__alloc_traitsISaI9t3DObjectEE9constructIS1_EEvRS2_PS1_RKT_
FN:188,_ZN9__gnu_cxx14__alloc_traitsISaI13tMaterialInfoEE9constructIS1_EEvRS2_PS1_RKT_
FN:191,_ZN9__gnu_cxx14__alloc_traitsISaI9t3DObjectEE7destroyERS2_PS1_
FN:191,_ZN9__gnu_cxx14__alloc_traitsISaI13tMaterialInfoEE7destroyERS2_PS1_
FN:194,_ZN9__gnu_cxx14__alloc_traitsISaI9t3DObjectEE8max_sizeERKS2_
FN:194,_ZN9__gnu_cxx14__alloc_traitsISaI13tMaterialInfoEE8max_sizeERKS2_
FNDA:1,_ZN9__gnu_cxx14__alloc_traitsISaI9t3DObjectEE8allocateERS2_m
FNDA:1,_ZN9__gnu_cxx14__alloc_traitsISaI13tMaterialInfoEE8allocateERS2_m
FNDA:1,_ZN9__gnu_cxx14__alloc_traitsISaI9t3DObjectEE10deallocateERS2_PS1_m
FNDA:1,_ZN9__gnu_cxx14__alloc_traitsISaI13tMaterialInfoEE10deallocateERS2_PS1_m
FNDA:1,_ZN9__gnu_cxx14__alloc_traitsISaI9t3DObjectEE9constructIS1_EEvRS2_PS1_RKT_
FNDA:1,_ZN9__gnu_cxx14__alloc_traitsISaI13tMaterialInfoEE9constructIS1_EEvRS2_PS1_RKT_
FNDA:0,_ZN9__gnu_cxx14__alloc_traitsISaI9t3DObjectEE7destroyERS2_PS1_
FNDA:0,_ZN9__gnu_cxx14__alloc_traitsISaI13tMaterialInfoEE7destroyERS2_PS1_
FNDA:2,_ZN9__gnu_cxx14__alloc_traitsISaI9t3DObjectEE8max_sizeERKS2_
FNDA:2,_ZN9__gnu_cxx14__alloc_traitsISaI13tMaterialInfoEE8max_sizeERKS2_
FNF:10
FNH:8
DA:181,2
DA:182,2
DA:184,2
DA:185,2
DA:188,2
DA:189,2
DA:191,0
DA:192,0
DA:194,4
DA:195,4
LF:10
LH:8
end_of_record
SF:/usr/include/c++/5/ext/new_allocator.h
FN:99,_ZN9__gnu_cxx13new_allocatorI13tMaterialInfoE8allocateEmPKv
FN:99,_ZN9__gnu_cxx13new_allocatorI9t3DObjectE8allocateEmPKv
FN:109,_ZN9__gnu_cxx13new_allocatorI13tMaterialInfoE10deallocateEPS1_m
FN:109,_ZN9__gnu_cxx13new_allocatorI9t3DObjectE10deallocateEPS1_m
FN:113,_ZNK9__gnu_cxx13new_allocatorI9t3DObjectE8max_sizeEv
FN:113,_ZNK9__gnu_cxx13new_allocatorI13tMaterialInfoE8max_sizeEv
FN:129,_ZN9__gnu_cxx13new_allocatorI13tMaterialInfoE9constructEPS1_RKS1_
FN:129,_ZN9__gnu_cxx13new_allocatorI9t3DObjectE9constructEPS1_RKS1_
FN:133,_ZN9__gnu_cxx13new_allocatorI13tMaterialInfoE7destroyEPS1_
FN:133,_ZN9__gnu_cxx13new_allocatorI9t3DObjectE7destroyEPS1_
FNDA:1,_ZN9__gnu_cxx13new_allocatorI9t3DObjectE8allocateEmPKv
FNDA:1,_ZN9__gnu_cxx13new_allocatorI13tMaterialInfoE8allocateEmPKv
FNDA:1,_ZN9__gnu_cxx13new_allocatorI9t3DObjectE10deallocateEPS1_m
FNDA:1,_ZN9__gnu_cxx13new_allocatorI13tMaterialInfoE10deallocateEPS1_m
FNDA:3,_ZNK9__gnu_cxx13new_allocatorI9t3DObjectE8max_sizeEv
FNDA:3,_ZNK9__gnu_cxx13new_allocatorI13tMaterialInfoE8max_sizeEv
FNDA:1,_ZN9__gnu_cxx13new_allocatorI9t3DObjectE9constructEPS1_RKS1_
FNDA:1,_ZN9__gnu_cxx13new_allocatorI13tMaterialInfoE9constructEPS1_RKS1_
FNDA:0,_ZN9__gnu_cxx13new_allocatorI9t3DObjectE7destroyEPS1_
FNDA:0,_ZN9__gnu_cxx13new_allocatorI13tMaterialInfoE7destroyEPS1_
FNF:10
FNH:8
DA:99,2
DA:101,2
DA:102,0
DA:104,2
DA:109,2
DA:110,2
DA:113,6
DA:114,6
DA:129,2
DA:130,2
DA:133,0
LF:11
LH:9
end_of_record
SF:/usr/include/c++/5/new
FN:129,_ZnwmPv
FNDA:69501,_ZnwmPv
FNF:1
FNH:1
DA:129,69501
DA:130,69501
LF:2
LH:2
end_of_record
SF:/disk2/graphdev/ReduceGL/DevR1/3DS.cpp
FN:7,_Z11empty_chunkP6tChunk
FN:12,_ZN8CLoad3DSC2Ev
FN:19,_ZN8CLoad3DS9Import3DSEP8t3DModelPc
FN:64,_ZN8CLoad3DS7CleanUpEv
FN:75,_ZN8CLoad3DS16ProcessNextChunkEP8t3DModelP6tChunk
FN:180,_ZN8CLoad3DS22ProcessNextObjectChunkEP8t3DModelP9t3DObjectP6tChunk
FN:242,_ZN8CLoad3DS24ProcessNextMaterialChunkEP8t3DModelP6tChunk
FN:297,_ZN8CLoad3DS9ReadChunkEP6tChunk
FN:307,_ZN8CLoad3DS9GetStringEPc
FN:327,_ZN8CLoad3DS14ReadColorChunkEP13tMaterialInfoP6tChunk
FN:340,_ZN8CLoad3DS17ReadVertexIndicesEP9t3DObjectP6tChunk
FN:370,_ZN8CLoad3DS17ReadUVCoordinatesEP9t3DObjectP6tChunk
FN:385,_ZN8CLoad3DS12ReadVerticesEP9t3DObjectP6tChunk
FN:419,_ZN8CLoad3DS18ReadObjectMaterialEP8t3DModelP9t3DObjectP6tChunk
FN:463,_Z6Vector8CVector3S_
FN:475,_Z9AddVector8CVector3S_
FN:487,_Z20DivideVectorByScaler8CVector3f
FN:499,_Z5Cross8CVector3S_
FN:513,_Z9Normalize8CVector3
FN:527,_ZN8CLoad3DS14ComputeNormalsEP8t3DModel
FNDA:8,_Z11empty_chunkP6tChunk
FNDA:1,_ZN8CLoad3DSC2Ev
FNDA:1,_ZN8CLoad3DS9Import3DSEP8t3DModelPc
FNDA:1,_ZN8CLoad3DS7CleanUpEv
FNDA:2,_ZN8CLoad3DS16ProcessNextChunkEP8t3DModelP6tChunk
FNDA:2,_ZN8CLoad3DS22ProcessNextObjectChunkEP8t3DModelP9t3DObjectP6tChunk
FNDA:2,_ZN8CLoad3DS24ProcessNextMaterialChunkEP8t3DModelP6tChunk
FNDA:34,_ZN8CLoad3DS9ReadChunkEP6tChunk
FNDA:2,_ZN8CLoad3DS9GetStringEPc
FNDA:1,_ZN8CLoad3DS14ReadColorChunkEP13tMaterialInfoP6tChunk
FNDA:1,_ZN8CLoad3DS17ReadVertexIndicesEP9t3DObjectP6tChunk
FNDA:1,_ZN8CLoad3DS17ReadUVCoordinatesEP9t3DObjectP6tChunk
FNDA:1,_ZN8CLoad3DS12ReadVerticesEP9t3DObjectP6tChunk
FNDA:1,_ZN8CLoad3DS18ReadObjectMaterialEP8t3DModelP9t3DObjectP6tChunk
FNDA:6372,_Z6Vector8CVector3S_
FNDA:9558,_Z9AddVector8CVector3S_
FNDA:1683,_Z20DivideVectorByScaler8CVector3f
FNDA:3186,_Z5Cross8CVector3S_
FNDA:4869,_Z9Normalize8CVector3
FNDA:1,_ZN8CLoad3DS14ComputeNormalsEP8t3DModel
FNF:20
FNH:20
DA:7,8
DA:9,8
DA:10,8
DA:12,1
DA:14,1
DA:15,1
DA:16,1
DA:19,1
DA:21,1
DA:24,1
DA:27,1
DA:29,0
DA:31,0
DA:38,1
DA:41,1
DA:43,0
DA:45,0
DA:51,1
DA:54,1
DA:57,1
DA:59,1
DA:64,1
DA:67,1
DA:68,1
DA:69,1
DA:70,1
DA:75,2
DA:77,2
DA:78,2
DA:79,2
DA:80,2
DA:82,2
DA:84,2
DA:89,14
DA:92,6
DA:95,6
DA:102,1
DA:107,1
DA:112,1
DA:115,1
DA:118,1
DA:121,1
DA:122,1
DA:127,1
DA:130,1
DA:133,1
DA:134,1
DA:141,1
DA:144,1
DA:147,1
DA:150,1
DA:153,1
DA:154,1
DA:159,1
DA:160,1
DA:165,1
DA:166,1
DA:170,6
DA:174,2
DA:175,2
DA:176,2
DA:180,2
DA:182,2
DA:185,2
DA:188,16
DA:191,7
DA:194,7
DA:199,1
DA:200,1
DA:203,1
DA:204,1
DA:207,1
DA:208,1
DA:216,1
DA:217,1
DA:222,1
DA:223,1
DA:228,2
DA:229,2
DA:233,7
DA:237,2
DA:238,2
DA:239,2
DA:242,2
DA:244,2
DA:247,2
DA:250,38
DA:253,18
DA:256,18
DA:261,1
DA:262,1
DA:265,1
DA:266,1
DA:271,1
DA:272,1
DA:277,1
DA:278,1
DA:283,14
DA:284,14
DA:288,18
DA:292,2
DA:293,2
DA:294,2
DA:297,34
DA:300,34
DA:303,34
DA:304,34
DA:307,2
DA:309,2
DA:312,2
DA:315,36
DA:318,17
DA:322,2
DA:327,1
DA:330,1
DA:333,1
DA:336,1
DA:337,1
DA:340,1
DA:342,1
DA:345,1
DA:348,1
DA:349,1
DA:352,3187
DA:354,15930
DA:357,12744
DA:359,12744
DA:362,9558
DA:366,1
DA:370,1
DA:375,1
DA:378,1
DA:381,1
DA:382,1
DA:385,1
DA:390,1
DA:393,1
DA:394,1
DA:397,1
DA:404,1684
DA:407,1683
DA:410,1683
DA:413,1683
DA:415,1
DA:419,1
DA:421,1
DA:422,1
DA:427,1
DA:430,1
DA:433,1
DA:436,1
DA:439,1
DA:442,1
DA:444,1
DA:449,0
DA:453,1
DA:454,1
DA:463,6372
DA:467,6372
DA:468,6372
DA:469,6372
DA:471,6372
DA:475,9558
DA:479,9558
DA:480,9558
DA:481,9558
DA:483,9558
DA:487,1683
DA:491,1683
DA:492,1683
DA:493,1683
DA:495,1683
DA:499,3186
DA:503,3186
DA:505,3186
DA:507,3186
DA:509,3186
DA:513,4869
DA:517,4869
DA:519,4869
DA:520,4869
DA:521,4869
DA:523,4869
DA:527,1
DA:532,1
DA:533,0
DA:536,2
DA:539,1
DA:542,1
DA:543,1
DA:544,1
DA:547,3187
DA:549,3186
DA:550,3186
DA:551,3186
DA:555,3186
DA:556,3186
DA:558,3186
DA:559,3186
DA:560,3186
DA:562,3186
DA:566,1
DA:567,1
DA:568,1
DA:570,1684
DA:572,5363721
DA:574,10720890
DA:575,10714518
DA:576,5355666
DA:578,9558
DA:579,9558
DA:583,1683
DA:586,1683
DA:588,1683
DA:589,1683
DA:593,1
DA:594,1
LF:217
LH:211
end_of_record
TN:
SF:/usr/include/c++/5/bits/allocator.h
FN:113,_ZNSaI9t3DObjectEC2Ev
FN:113,_ZNSaI13tMaterialInfoEC2Ev
FN:113,_ZNSaI8triangleEC2Ev
FN:121,_ZNSaI13tMaterialInfoED2Ev
FN:121,_ZNSaI9t3DObjectED2Ev
FN:121,_ZNSaI8triangleED2Ev
FNDA:1,_ZNSaI8triangleEC2Ev
FNDA:1,_ZNSaI9t3DObjectEC2Ev
FNDA:1,_ZNSaI13tMaterialInfoEC2Ev
FNDA:1,_ZNSaI8triangleED2Ev
FNDA:1,_ZNSaI9t3DObjectED2Ev
FNDA:1,_ZNSaI13tMaterialInfoED2Ev
FNF:6
FNH:6
DA:113,3
DA:121,3
LF:2
LH:2
end_of_record
SF:/usr/include/c++/5/bits/basic_string.h
FN:4783,_ZStplIcSt11char_traitsIcESaIcEENSt7__cxx1112basic_stringIT_T0_T1_EERKS8_SA_
FNDA:1,_ZStplIcSt11char_traitsIcESaIcEENSt7__cxx1112basic_stringIT_T0_T1_EERKS8_SA_
FNF:1
FNH:1
DA:4783,1
DA:4786,1
DA:4787,1
DA:4788,1
LF:4
LH:4
end_of_record
SF:/usr/include/c++/5/bits/ios_base.h
FN:129,_ZStorSt13_Ios_OpenmodeS_
FNDA:1,_ZStorSt13_Ios_OpenmodeS_
FNF:1
FNH:1
DA:129,1
DA:130,1
LF:2
LH:2
end_of_record
SF:/usr/include/c++/5/bits/move.h
FN:47,_ZSt11__addressofI2M4EPT_RS1_
FNDA:48,_ZSt11__addressofI2M4EPT_RS1_
FNF:1
FNH:1
DA:47,48
DA:50,48
LF:2
LH:2
end_of_record
SF:/usr/include/c++/5/bits/postypes.h
FN:133,_ZNSt4fposI11__mbstate_tEC2El
FNDA:1,_ZNSt4fposI11__mbstate_tEC2El
FNF:1
FNH:1
DA:133,1
DA:134,1
LF:2
LH:2
end_of_record
SF:/usr/include/c++/5/bits/stl_algobase.h
FN:219,_ZSt3maxImERKT_S2_S2_
FN:282,_ZSt12__niter_baseIP8triangleENSt11_Niter_baseIT_E13iterator_typeES3_
FN:282,_ZSt12__niter_baseIP2M4ENSt11_Niter_baseIT_E13iterator_typeES3_
FN:293,_ZSt12__miter_baseIP2M4ENSt11_Miter_baseIT_E13iterator_typeES3_
FN:293,_ZSt12__miter_baseIP8triangleENSt11_Miter_baseIT_E13iterator_typeES3_
FN:373,_ZNSt11__copy_moveILb0ELb1ESt26random_access_iterator_tagE8__copy_mI8triangleEEPT_PKS4_S7_S5_
FN:391,_ZSt13__copy_move_aILb0EP8triangleS1_ET1_T0_S3_S2_
FN:436,_ZSt14__copy_move_a2ILb0EP8triangleS1_ET1_T0_S3_S2_
FN:462,_ZSt4copyIP8triangleS1_ET0_T_S3_S2_
FN:545,_ZNSt20__copy_move_backwardILb0ELb0ESt26random_access_iterator_tagE13__copy_move_bIP2M4S4_EET0_T_S6_S5_
FN:575,_ZNSt20__copy_move_backwardILb0ELb1ESt26random_access_iterator_tagE13__copy_move_bI8triangleEEPT_PKS4_S7_S5_
FN:593,_ZSt22__copy_move_backward_aILb0EP2M4S1_ET1_T0_S3_S2_
FN:593,_ZSt22__copy_move_backward_aILb0EP8triangleS1_ET1_T0_S3_S2_
FN:611,_ZSt23__copy_move_backward_a2ILb0EP2M4S1_ET1_T0_S3_S2_
FN:611,_ZSt23__copy_move_backward_a2ILb0EP8triangleS1_ET1_T0_S3_S2_
FN:638,_ZSt13copy_backwardIP8triangleS1_ET0_T_S3_S2_
FN:638,_ZSt13copy_backwardIP2M4S1_ET0_T_S3_S2_
FN:697,_ZSt8__fill_aIP2M4S0_EN9__gnu_cxx11__enable_ifIXntsrSt11__is_scalarIT0_E7__valueEvE6__typeET_S9_RKS5_
FN:740,_ZSt4fillIP2M4S0_EvT_S2_RKT0_
FNDA:0,_ZSt3maxImERKT_S2_S2_
FNDA:108,_ZSt12__niter_baseIP8triangleENSt11_Niter_baseIT_E13iterator_typeES3_
FNDA:0,_ZSt12__niter_baseIP2M4ENSt11_Niter_baseIT_E13iterator_typeES3_
FNDA:0,_ZSt12__miter_baseIP2M4ENSt11_Miter_baseIT_E13iterator_typeES3_
FNDA:72,_ZSt12__miter_baseIP8triangleENSt11_Miter_baseIT_E13iterator_typeES3_
FNDA:36,_ZNSt11__copy_moveILb0ELb1ESt26random_access_iterator_tagE8__copy_mI8triangleEEPT_PKS4_S7_S5_
FNDA:36,_ZSt13__copy_move_aILb0EP8triangleS1_ET1_T0_S3_S2_
FNDA:36,_ZSt14__copy_move_a2ILb0EP8triangleS1_ET1_T0_S3_S2_
FNDA:36,_ZSt4copyIP8triangleS1_ET0_T_S3_S2_
FNDA:0,_ZNSt20__copy_move_backwardILb0ELb0ESt26random_access_iterator_tagE13__copy_move_bIP2M4S4_EET0_T_S6_S5_
FNDA:0,_ZNSt20__copy_move_backwardILb0ELb1ESt26random_access_iterator_tagE13__copy_move_bI8triangleEEPT_PKS4_S7_S5_
FNDA:0,_ZSt22__copy_move_backward_aILb0EP2M4S1_ET1_T0_S3_S2_
FNDA:0,_ZSt22__copy_move_backward_aILb0EP8triangleS1_ET1_T0_S3_S2_
FNDA:0,_ZSt23__copy_move_backward_a2ILb0EP2M4S1_ET1_T0_S3_S2_
FNDA:0,_ZSt23__copy_move_backward_a2ILb0EP8triangleS1_ET1_T0_S3_S2_
FNDA:0,_ZSt13copy_backwardIP2M4S1_ET0_T_S3_S2_
FNDA:0,_ZSt13copy_backwardIP8triangleS1_ET0_T_S3_S2_
FNDA:0,_ZSt8__fill_aIP2M4S0_EN9__gnu_cxx11__enable_ifIXntsrSt11__is_scalarIT0_E7__valueEvE6__typeET_S9_RKS5_
FNDA:0,_ZSt4fillIP2M4S0_EvT_S2_RKT0_
FNF:19
FNH:6
DA:219,0
DA:224,0
DA:225,0
DA:226,0
DA:282,108
DA:283,108
DA:293,72
DA:294,72
DA:373,36
DA:382,36
DA:383,36
DA:384,17
DA:385,36
DA:391,36
DA:399,36
DA:402,36
DA:436,36
DA:438,36
DA:440,36
DA:462,36
DA:471,36
DA:472,36
DA:545,0
DA:548,0
DA:549,0
DA:550,0
DA:575,0
DA:584,0
DA:585,0
DA:586,0
DA:587,0
DA:593,0
DA:601,0
DA:606,0
DA:611,0
DA:614,0
DA:615,0
DA:638,0
DA:649,0
DA:650,0
DA:697,0
DA:700,0
DA:701,0
DA:702,0
DA:740,0
DA:747,0
DA:749,0
LF:47
LH:18
end_of_record
SF:/usr/include/c++/5/bits/stl_construct.h
FN:79,_ZSt10_ConstructI2M4S0_EvPT_RKT0_
FN:112,_ZNSt12_Destroy_auxILb1EE9__destroyIP13tMaterialInfoEEvT_S4_
FN:112,_ZNSt12_Destroy_auxILb1EE9__destroyIP8triangleEEvT_S4_
FN:112,_ZNSt12_Destroy_auxILb1EE9__destroyIP9t3DObjectEEvT_S4_
FN:112,_ZNSt12_Destroy_auxILb1EE9__destroyIP2M4EEvT_S4_
FN:122,_ZSt8_DestroyIP9t3DObjectEvT_S2_
FN:122,_ZSt8_DestroyIP2M4EvT_S2_
FN:122,_ZSt8_DestroyIP8triangleEvT_S2_
FN:122,_ZSt8_DestroyIP13tMaterialInfoEvT_S2_
FN:148,_ZSt8_DestroyIP8triangleS0_EvT_S2_RSaIT0_E
FN:148,_ZSt8_DestroyIP13tMaterialInfoS0_EvT_S2_RSaIT0_E
FN:148,_ZSt8_DestroyIP9t3DObjectS0_EvT_S2_RSaIT0_E
FN:148,_ZSt8_DestroyIP2M4S0_EvT_S2_RSaIT0_E
FNDA:48,_ZSt10_ConstructI2M4S0_EvPT_RKT0_
FNDA:3,_ZNSt12_Destroy_auxILb1EE9__destroyIP2M4EEvT_S4_
FNDA:19,_ZNSt12_Destroy_auxILb1EE9__destroyIP8triangleEEvT_S4_
FNDA:0,_ZNSt12_Destroy_auxILb1EE9__destroyIP9t3DObjectEEvT_S4_
FNDA:0,_ZNSt12_Destroy_auxILb1EE9__destroyIP13tMaterialInfoEEvT_S4_
FNDA:3,_ZSt8_DestroyIP2M4EvT_S2_
FNDA:19,_ZSt8_DestroyIP8triangleEvT_S2_
FNDA:0,_ZSt8_DestroyIP9t3DObjectEvT_S2_
FNDA:0,_ZSt8_DestroyIP13tMaterialInfoEvT_S2_
FNDA:3,_ZSt8_DestroyIP2M4S0_EvT_S2_RSaIT0_E
FNDA:19,_ZSt8_DestroyIP8triangleS0_EvT_S2_RSaIT0_E
FNDA:0,_ZSt8_DestroyIP9t3DObjectS0_EvT_S2_RSaIT0_E
FNDA:0,_ZSt8_DestroyIP13tMaterialInfoS0_EvT_S2_RSaIT0_E
FNF:13
FNH:7
DA:79,48
DA:83,48
DA:84,48
DA:112,22
DA:122,22
DA:126,22
DA:128,22
DA:148,22
DA:151,22
DA:152,22
LF:10
LH:10
end_of_record
SF:/usr/include/c++/5/bits/stl_iterator.h
FN:740,_ZN9__gnu_cxx17__normal_iteratorIP8triangleSt6vectorIS1_SaIS1_EEEC2ERKS2_
FN:740,_ZN9__gnu_cxx17__normal_iteratorIP2M4St6vectorIS1_SaIS1_EEEC2ERKS2_
FN:753,_ZNK9__gnu_cxx17__normal_iteratorIP8triangleSt6vectorIS1_SaIS1_EEEdeEv
FN:805,_ZNK9__gnu_cxx17__normal_iteratorIP8triangleSt6vectorIS1_SaIS1_EEE4baseEv
FN:805,_ZNK9__gnu_cxx17__normal_iteratorIP2M4St6vectorIS1_SaIS1_EEE4baseEv
FN:923,_ZN9__gnu_cxxmiIP8triangleSt6vectorIS1_SaIS1_EEEENS_17__normal_iteratorIT_T0_E15difference_typeERKS9_SC_
FN:923,_ZN9__gnu_cxxmiIP2M4St6vectorIS1_SaIS1_EEEENS_17__normal_iteratorIT_T0_E15difference_typeERKS9_SC_
FNDA:36,_ZN9__gnu_cxx17__normal_iteratorIP8triangleSt6vectorIS1_SaIS1_EEEC2ERKS2_
FNDA:6,_ZN9__gnu_cxx17__normal_iteratorIP2M4St6vectorIS1_SaIS1_EEEC2ERKS2_
FNDA:0,_ZNK9__gnu_cxx17__normal_iteratorIP8triangleSt6vectorIS1_SaIS1_EEEdeEv
FNDA:12,_ZNK9__gnu_cxx17__normal_iteratorIP2M4St6vectorIS1_SaIS1_EEE4baseEv
FNDA:72,_ZNK9__gnu_cxx17__normal_iteratorIP8triangleSt6vectorIS1_SaIS1_EEE4baseEv
FNDA:3,_ZN9__gnu_cxxmiIP2M4St6vectorIS1_SaIS1_EEEENS_17__normal_iteratorIT_T0_E15difference_typeERKS9_SC_
FNDA:18,_ZN9__gnu_cxxmiIP8triangleSt6vectorIS1_SaIS1_EEEENS_17__normal_iteratorIT_T0_E15difference_typeERKS9_SC_
FNF:7
FNH:6
DA:740,42
DA:741,42
DA:753,0
DA:754,0
DA:805,84
DA:806,84
DA:923,21
DA:926,21
LF:8
LH:6
end_of_record
SF:/usr/include/c++/5/bits/stl_iterator_base_types.h
FN:215,_ZNSt10_Iter_baseIP2M4Lb0EE7_S_baseES1_
FN:215,_ZNSt10_Iter_baseIP8triangleLb0EE7_S_baseES1_
FNDA:0,_ZNSt10_Iter_baseIP2M4Lb0EE7_S_baseES1_
FNDA:180,_ZNSt10_Iter_baseIP8triangleLb0EE7_S_baseES1_
FNF:2
FNH:1
DA:215,180
DA:216,180
LF:2
LH:2
end_of_record
SF:/usr/include/c++/5/bits/stl_uninitialized.h
FN:68,_ZNSt20__uninitialized_copyILb0EE13__uninit_copyIP2M4S3_EET0_T_S5_S4_
FN:91,_ZNSt20__uninitialized_copyILb1EE13__uninit_copyIP8triangleS3_EET0_T_S5_S4_
FN:107,_ZSt18uninitialized_copyIP2M4S1_ET0_T_S3_S2_
FN:107,_ZSt18uninitialized_copyIP8triangleS1_ET0_T_S3_S2_
FN:195,_ZNSt22__uninitialized_fill_nILb0EE15__uninit_fill_nIP2M4mS2_EET_S4_T0_RKT1_
FN:236,_ZSt20uninitialized_fill_nIP2M4mS0_ET_S2_T0_RKT1_
FN:279,_ZSt22__uninitialized_copy_aIP2M4S1_S0_ET0_T_S3_S2_RSaIT1_E
FN:279,_ZSt22__uninitialized_copy_aIP8triangleS1_S0_ET0_T_S3_S2_RSaIT1_E
FN:286,_ZSt22__uninitialized_move_aIP2M4S1_SaIS0_EET0_T_S4_S3_RT1_
FN:297,_ZSt34__uninitialized_move_if_noexcept_aIP2M4S1_SaIS0_EET0_T_S4_S3_RT1_
FN:297,_ZSt34__uninitialized_move_if_noexcept_aIP8triangleS1_SaIS0_EET0_T_S4_S3_RT1_
FN:356,_ZSt24__uninitialized_fill_n_aIP2M4mS0_S0_ET_S2_T0_RKT1_RSaIT2_E
FNDA:6,_ZNSt20__uninitialized_copyILb0EE13__uninit_copyIP2M4S3_EET0_T_S5_S4_
FNDA:36,_ZNSt20__uninitialized_copyILb1EE13__uninit_copyIP8triangleS3_EET0_T_S5_S4_
FNDA:6,_ZSt18uninitialized_copyIP2M4S1_ET0_T_S3_S2_
FNDA:36,_ZSt18uninitialized_copyIP8triangleS1_ET0_T_S3_S2_
FNDA:3,_ZNSt22__uninitialized_fill_nILb0EE15__uninit_fill_nIP2M4mS2_EET_S4_T0_RKT1_
FNDA:3,_ZSt20uninitialized_fill_nIP2M4mS0_ET_S2_T0_RKT1_
FNDA:6,_ZSt22__uninitialized_copy_aIP2M4S1_S0_ET0_T_S3_S2_RSaIT1_E
FNDA:36,_ZSt22__uninitialized_copy_aIP8triangleS1_S0_ET0_T_S3_S2_RSaIT1_E
FNDA:0,_ZSt22__uninitialized_move_aIP2M4S1_SaIS0_EET0_T_S4_S3_RT1_
FNDA:6,_ZSt34__uninitialized_move_if_noexcept_aIP2M4S1_SaIS0_EET0_T_S4_S3_RT1_
FNDA:36,_ZSt34__uninitialized_move_if_noexcept_aIP8triangleS1_SaIS0_EET0_T_S4_S3_RT1_
FNDA:3,_ZSt24__uninitialized_fill_n_aIP2M4mS0_S0_ET_S2_T0_RKT1_RSaIT2_E
FNF:12
FNH:11
DA:68,6
DA:71,6
DA:74,6
DA:75,0
DA:76,6
DA:91,36
DA:93,36
DA:107,42
DA:115,42
DA:126,42
DA:195,3
DA:198,3
DA:201,99
DA:202,48
DA:203,3
DA:236,3
DA:241,3
DA:247,3
DA:279,42
DA:281,42
DA:286,0
DA:291,0
DA:297,42
DA:304,42
DA:356,3
DA:358,3
LF:26
LH:23
end_of_record
SF:/usr/include/c++/5/bits/stl_vector.h
FN:79,_ZNSt12_Vector_baseI9t3DObjectSaIS0_EE12_Vector_implD2Ev
FN:79,_ZNSt12_Vector_baseI13tMaterialInfoSaIS0_EE12_Vector_implD2Ev
FN:79,_ZNSt12_Vector_baseI8triangleSaIS0_EE12_Vector_implD2Ev
FN:86,_ZNSt12_Vector_baseI8triangleSaIS0_EE12_Vector_implC2Ev
FN:86,_ZNSt12_Vector_baseI13tMaterialInfoSaIS0_EE12_Vector_implC2Ev
FN:86,_ZNSt12_Vector_baseI9t3DObjectSaIS0_EE12_Vector_implC2Ev
FN:113,_ZNSt12_Vector_baseI13tMaterialInfoSaIS0_EE19_M_get_Tp_allocatorEv
FN:113,_ZNSt12_Vector_baseI9t3DObjectSaIS0_EE19_M_get_Tp_allocatorEv
FN:113,_ZNSt12_Vector_baseI2M4SaIS0_EE19_M_get_Tp_allocatorEv
FN:113,_ZNSt12_Vector_baseI8triangleSaIS0_EE19_M_get_Tp_allocatorEv
FN:117,_ZNKSt12_Vector_baseI2M4SaIS0_EE19_M_get_Tp_allocatorEv
FN:117,_ZNKSt12_Vector_baseI8triangleSaIS0_EE19_M_get_Tp_allocatorEv
FN:124,_ZNSt12_Vector_baseI9t3DObjectSaIS0_EEC2Ev
FN:124,_ZNSt12_Vector_baseI8triangleSaIS0_EEC2Ev
FN:124,_ZNSt12_Vector_baseI13tMaterialInfoSaIS0_EEC2Ev
FN:159,_ZNSt12_Vector_baseI8triangleSaIS0_EED2Ev
FN:159,_ZNSt12_Vector_baseI13tMaterialInfoSaIS0_EED2Ev
FN:159,_ZNSt12_Vector_baseI9t3DObjectSaIS0_EED2Ev
FN:167,_ZNSt12_Vector_baseI8triangleSaIS0_EE11_M_allocateEm
FN:167,_ZNSt12_Vector_baseI2M4SaIS0_EE11_M_allocateEm
FN:174,_ZNSt12_Vector_baseI13tMaterialInfoSaIS0_EE13_M_deallocateEPS0_m
FN:174,_ZNSt12_Vector_baseI8triangleSaIS0_EE13_M_deallocateEPS0_m
FN:174,_ZNSt12_Vector_baseI2M4SaIS0_EE13_M_deallocateEPS0_m
FN:174,_ZNSt12_Vector_baseI9t3DObjectSaIS0_EE13_M_deallocateEPS0_m
FN:253,_ZNSt6vectorI9t3DObjectSaIS0_EEC2Ev
FN:253,_ZNSt6vectorI13tMaterialInfoSaIS0_EEC2Ev
FN:253,_ZNSt6vectorI8triangleSaIS0_EEC2Ev
FN:423,_ZNSt6vectorI8triangleSaIS0_EED2Ev
FN:423,_ZNSt6vectorI9t3DObjectSaIS0_EED2Ev
FN:423,_ZNSt6vectorI13tMaterialInfoSaIS0_EED2Ev
FN:547,_ZNSt6vectorI8triangleSaIS0_EE5beginEv
FN:547,_ZNSt6vectorI2M4SaIS0_EE5beginEv
FN:565,_ZNSt6vectorI8triangleSaIS0_EE3endEv
FN:565,_ZNSt6vectorI2M4SaIS0_EE3endEv
FN:654,_ZNKSt6vectorI9t3DObjectSaIS0_EE4sizeEv
FN:654,_ZNKSt6vectorI13tMaterialInfoSaIS0_EE4sizeEv
FN:654,_ZNKSt6vectorI2M4SaIS0_EE4sizeEv
FN:654,_ZNKSt6vectorI8triangleSaIS0_EE4sizeEv
FN:659,_ZNKSt6vectorI8triangleSaIS0_EE8max_sizeEv
FN:659,_ZNKSt6vectorI2M4SaIS0_EE8max_sizeEv
FN:713,_ZNSt6vectorI2M4SaIS0_EE6resizeEmS0_
FN:779,_ZNSt6vectorI2M4SaIS0_EEixEm
FN:779,_ZNSt6vectorI9t3DObjectSaIS0_EEixEm
FN:779,_ZNSt6vectorI13tMaterialInfoSaIS0_EEixEm
FN:779,_ZNSt6vectorI8triangleSaIS0_EEixEm
FN:913,_ZNSt6vectorI8triangleSaIS0_EE9push_backERKS0_
FN:1072,_ZNSt6vectorI2M4SaIS0_EE6insertEN9__gnu_cxx17__normal_iteratorIPS0_S2_EEmRKS0_
FN:1422,_ZNKSt6vectorI8triangleSaIS0_EE12_M_check_lenEmPKc
FN:1422,_ZNKSt6vectorI2M4SaIS0_EE12_M_check_lenEmPKc
FN:1436,_ZNSt6vectorI2M4SaIS0_EE15_M_erase_at_endEPS0_
FNDA:1,_ZNSt12_Vector_baseI8triangleSaIS0_EE12_Vector_implD2Ev
FNDA:1,_ZNSt12_Vector_baseI9t3DObjectSaIS0_EE12_Vector_implD2Ev
FNDA:1,_ZNSt12_Vector_baseI13tMaterialInfoSaIS0_EE12_Vector_implD2Ev
FNDA:1,_ZNSt12_Vector_baseI8triangleSaIS0_EE12_Vector_implC2Ev
FNDA:1,_ZNSt12_Vector_baseI9t3DObjectSaIS0_EE12_Vector_implC2Ev
FNDA:1,_ZNSt12_Vector_baseI13tMaterialInfoSaIS0_EE12_Vector_implC2Ev
FNDA:12,_ZNSt12_Vector_baseI2M4SaIS0_EE19_M_get_Tp_allocatorEv
FNDA:55,_ZNSt12_Vector_baseI8triangleSaIS0_EE19_M_get_Tp_allocatorEv
FNDA:0,_ZNSt12_Vector_baseI9t3DObjectSaIS0_EE19_M_get_Tp_allocatorEv
FNDA:0,_ZNSt12_Vector_baseI13tMaterialInfoSaIS0_EE19_M_get_Tp_allocatorEv
FNDA:6,_ZNKSt12_Vector_baseI2M4SaIS0_EE19_M_get_Tp_allocatorEv
FNDA:36,_ZNKSt12_Vector_baseI8triangleSaIS0_EE19_M_get_Tp_allocatorEv
FNDA:1,_ZNSt12_Vector_baseI8triangleSaIS0_EEC2Ev
FNDA:1,_ZNSt12_Vector_baseI9t3DObjectSaIS0_EEC2Ev
FNDA:1,_ZNSt12_Vector_baseI13tMaterialInfoSaIS0_EEC2Ev
FNDA:1,_ZNSt12_Vector_baseI8triangleSaIS0_EED2Ev
FNDA:1,_ZNSt12_Vector_baseI9t3DObjectSaIS0_EED2Ev
FNDA:1,_ZNSt12_Vector_baseI13tMaterialInfoSaIS0_EED2Ev
FNDA:3,_ZNSt12_Vector_baseI2M4SaIS0_EE11_M_allocateEm
FNDA:18,_ZNSt12_Vector_baseI8triangleSaIS0_EE11_M_allocateEm
FNDA:3,_ZNSt12_Vector_baseI2M4SaIS0_EE13_M_deallocateEPS0_m
FNDA:0,_ZNSt12_Vector_baseI9t3DObjectSaIS0_EE13_M_deallocateEPS0_m
FNDA:0,_ZNSt12_Vector_baseI13tMaterialInfoSaIS0_EE13_M_deallocateEPS0_m
FNDA:19,_ZNSt12_Vector_baseI8triangleSaIS0_EE13_M_deallocateEPS0_m
FNDA:1,_ZNSt6vectorI8triangleSaIS0_EEC2Ev
FNDA:1,_ZNSt6vectorI9t3DObjectSaIS0_EEC2Ev
FNDA:1,_ZNSt6vectorI13tMaterialInfoSaIS0_EEC2Ev
FNDA:1,_ZNSt6vectorI8triangleSaIS0_EED2Ev
FNDA:1,_ZNSt6vectorI9t3DObjectSaIS0_EED2Ev
FNDA:1,_ZNSt6vectorI13tMaterialInfoSaIS0_EED2Ev
FNDA:3,_ZNSt6vectorI2M4SaIS0_EE5beginEv
FNDA:18,_ZNSt6vectorI8triangleSaIS0_EE5beginEv
FNDA:18,_ZNSt6vectorI8triangleSaIS0_EE3endEv
FNDA:3,_ZNSt6vectorI2M4SaIS0_EE3endEv
FNDA:18,_ZNKSt6vectorI2M4SaIS0_EE4sizeEv
FNDA:0,_ZNKSt6vectorI13tMaterialInfoSaIS0_EE4sizeEv
FNDA:0,_ZNKSt6vectorI9t3DObjectSaIS0_EE4sizeEv
FNDA:69524,_ZNKSt6vectorI8triangleSaIS0_EE4sizeEv
FNDA:6,_ZNKSt6vectorI2M4SaIS0_EE8max_sizeEv
FNDA:36,_ZNKSt6vectorI8triangleSaIS0_EE8max_sizeEv
FNDA:3,_ZNSt6vectorI2M4SaIS0_EE6resizeEmS0_
FNDA:1250118,_ZNSt6vectorI8triangleSaIS0_EEixEm
FNDA:0,_ZNSt6vectorI13tMaterialInfoSaIS0_EEixEm
FNDA:0,_ZNSt6vectorI9t3DObjectSaIS0_EEixEm
FNDA:436113,_ZNSt6vectorI2M4SaIS0_EEixEm
FNDA:69451,_ZNSt6vectorI8triangleSaIS0_EE9push_backERKS0_
FNDA:3,_ZNSt6vectorI2M4SaIS0_EE6insertEN9__gnu_cxx17__normal_iteratorIPS0_S2_EEmRKS0_
FNDA:3,_ZNKSt6vectorI2M4SaIS0_EE12_M_check_lenEmPKc
FNDA:18,_ZNKSt6vectorI8triangleSaIS0_EE12_M_check_lenEmPKc
FNDA:0,_ZNSt6vectorI2M4SaIS0_EE15_M_erase_at_endEPS0_
FNF:50
FNH:41
DA:79,3
DA:86,3
DA:87,3
DA:88,3
DA:113,67
DA:114,67
DA:117,42
DA:118,42
DA:124,3
DA:125,3
DA:159,3
DA:160,6
DA:161,9
DA:167,21
DA:170,21
DA:174,22
DA:177,22
DA:178,18
DA:179,22
DA:253,3
DA:257,3
DA:423,3
DA:424,3
DA:425,6
DA:547,21
DA:548,21
DA:565,21
DA:566,21
DA:654,69542
DA:655,69542
DA:659,42
DA:660,42
DA:713,3
DA:715,3
DA:716,3
DA:717,0
DA:718,0
DA:719,3
DA:779,1686231
DA:780,1686231
DA:913,69451
DA:915,69451
DA:917,69433
DA:919,69433
DA:925,18
DA:927,69451
DA:1072,3
DA:1073,3
DA:1422,21
DA:1424,21
DA:1425,0
DA:1427,21
DA:1428,21
DA:1436,0
DA:1438,0
DA:1439,0
DA:1440,0
LF:57
LH:50
end_of_record
SF:/usr/include/c++/5/bits/vector.tcc
FN:326,_ZNSt6vectorI8triangleSaIS0_EE13_M_insert_auxEN9__gnu_cxx17__normal_iteratorIPS0_S2_EERKS0_
FN:449,_ZNSt6vectorI2M4SaIS0_EE14_M_fill_insertEN9__gnu_cxx17__normal_iteratorIPS0_S2_EEmRKS0_
FNDA:18,_ZNSt6vectorI8triangleSaIS0_EE13_M_insert_auxEN9__gnu_cxx17__normal_iteratorIPS0_S2_EERKS0_
FNDA:3,_ZNSt6vectorI2M4SaIS0_EE14_M_fill_insertEN9__gnu_cxx17__normal_iteratorIPS0_S2_EEmRKS0_
FNF:2
FNH:2
DA:326,18
DA:330,18
DA:332,0
DA:333,0
DA:335,0
DA:337,0
DA:339,0
DA:343,0
DA:351,18
DA:352,18
DA:353,18
DA:354,18
DA:361,18
DA:368,18
DA:370,18
DA:372,18
DA:373,18
DA:375,18
DA:377,18
DA:379,18
DA:380,18
DA:382,0
DA:384,0
DA:385,0
DA:388,0
DA:389,0
DA:390,0
DA:392,18
DA:393,18
DA:394,36
DA:396,36
DA:397,18
DA:398,18
DA:399,18
DA:401,18
DA:449,3
DA:452,3
DA:454,6
DA:455,6
DA:457,0
DA:458,0
DA:459,0
DA:460,0
DA:462,0
DA:465,0
DA:466,0
DA:467,0
DA:469,0
DA:474,0
DA:475,0
DA:478,0
DA:479,0
DA:481,0
DA:482,0
DA:483,0
DA:489,3
DA:490,3
DA:491,3
DA:492,3
DA:496,3
DA:498,3
DA:499,3
DA:501,3
DA:503,3
DA:504,3
DA:506,3
DA:508,3
DA:510,3
DA:511,3
DA:513,0
DA:515,0
DA:516,0
DA:517,0
DA:518,0
DA:520,0
DA:521,0
DA:522,0
DA:523,0
DA:525,3
DA:526,3
DA:527,6
DA:529,6
DA:530,3
DA:531,3
DA:532,3
DA:535,3
LF:86
LH:49
end_of_record
SF:/usr/include/c++/5/ext/alloc_traits.h
FN:181,_ZN9__gnu_cxx14__alloc_traitsISaI8triangleEE8allocateERS2_m
FN:181,_ZN9__gnu_cxx14__alloc_traitsISaI2M4EE8allocateERS2_m
FN:184,_ZN9__gnu_cxx14__alloc_traitsISaI13tMaterialInfoEE10deallocateERS2_PS1_m
FN:184,_ZN9__gnu_cxx14__alloc_traitsISaI2M4EE10deallocateERS2_PS1_m
FN:184,_ZN9__gnu_cxx14__alloc_traitsISaI8triangleEE10deallocateERS2_PS1_m
FN:184,_ZN9__gnu_cxx14__alloc_traitsISaI9t3DObjectEE10deallocateERS2_PS1_m
FN:188,_ZN9__gnu_cxx14__alloc_traitsISaI8triangleEE9constructIS1_EEvRS2_PS1_RKT_
FN:191,_ZN9__gnu_cxx14__alloc_traitsISaI8triangleEE7destroyERS2_PS1_
FN:194,_ZN9__gnu_cxx14__alloc_traitsISaI2M4EE8max_sizeERKS2_
FN:194,_ZN9__gnu_cxx14__alloc_traitsISaI8triangleEE8max_sizeERKS2_
FNDA:3,_ZN9__gnu_cxx14__alloc_traitsISaI2M4EE8allocateERS2_m
FNDA:18,_ZN9__gnu_cxx14__alloc_traitsISaI8triangleEE8allocateERS2_m
FNDA:0,_ZN9__gnu_cxx14__alloc_traitsISaI2M4EE10deallocateERS2_PS1_m
FNDA:0,_ZN9__gnu_cxx14__alloc_traitsISaI9t3DObjectEE10deallocateERS2_PS1_m
FNDA:0,_ZN9__gnu_cxx14__alloc_traitsISaI13tMaterialInfoEE10deallocateERS2_PS1_m
FNDA:18,_ZN9__gnu_cxx14__alloc_traitsISaI8triangleEE10deallocateERS2_PS1_m
FNDA:69451,_ZN9__gnu_cxx14__alloc_traitsISaI8triangleEE9constructIS1_EEvRS2_PS1_RKT_
FNDA:0,_ZN9__gnu_cxx14__alloc_traitsISaI8triangleEE7destroyERS2_PS1_
FNDA:6,_ZN9__gnu_cxx14__alloc_traitsISaI2M4EE8max_sizeERKS2_
FNDA:36,_ZN9__gnu_cxx14__alloc_traitsISaI8triangleEE8max_sizeERKS2_
FNF:10
FNH:6
DA:181,21
DA:182,21
DA:184,18
DA:185,18
DA:188,69451
DA:189,69451
DA:191,0
DA:192,0
DA:194,42
DA:195,42
LF:10
LH:8
end_of_record
SF:/usr/include/c++/5/ext/new_allocator.h
FN:79,_ZN9__gnu_cxx13new_allocatorI13tMaterialInfoEC2Ev
FN:79,_ZN9__gnu_cxx13new_allocatorI9t3DObjectEC2Ev
FN:79,_ZN9__gnu_cxx13new_allocatorI8triangleEC2Ev
FN:86,_ZN9__gnu_cxx13new_allocatorI13tMaterialInfoED2Ev
FN:86,_ZN9__gnu_cxx13new_allocatorI8triangleED2Ev
FN:86,_ZN9__gnu_cxx13new_allocatorI9t3DObjectED2Ev
FN:99,_ZN9__gnu_cxx13new_allocatorI2M4E8allocateEmPKv
FN:99,_ZN9__gnu_cxx13new_allocatorI8triangleE8allocateEmPKv
FN:109,_ZN9__gnu_cxx13new_allocatorI13tMaterialInfoE10deallocateEPS1_m
FN:109,_ZN9__gnu_cxx13new_allocatorI8triangleE10deallocateEPS1_m
FN:109,_ZN9__gnu_cxx13new_allocatorI9t3DObjectE10deallocateEPS1_m
FN:109,_ZN9__gnu_cxx13new_allocatorI2M4E10deallocateEPS1_m
FN:113,_ZNK9__gnu_cxx13new_allocatorI2M4E8max_sizeEv
FN:113,_ZNK9__gnu_cxx13new_allocatorI8triangleE8max_sizeEv
FN:129,_ZN9__gnu_cxx13new_allocatorI8triangleE9constructEPS1_RKS1_
FN:133,_ZN9__gnu_cxx13new_allocatorI8triangleE7destroyEPS1_
FNDA:1,_ZN9__gnu_cxx13new_allocatorI8triangleEC2Ev
FNDA:1,_ZN9__gnu_cxx13new_allocatorI9t3DObjectEC2Ev
FNDA:1,_ZN9__gnu_cxx13new_allocatorI13tMaterialInfoEC2Ev
FNDA:1,_ZN9__gnu_cxx13new_allocatorI8triangleED2Ev
FNDA:1,_ZN9__gnu_cxx13new_allocatorI9t3DObjectED2Ev
FNDA:1,_ZN9__gnu_cxx13new_allocatorI13tMaterialInfoED2Ev
FNDA:3,_ZN9__gnu_cxx13new_allocatorI2M4E8allocateEmPKv
FNDA:18,_ZN9__gnu_cxx13new_allocatorI8triangleE8allocateEmPKv
FNDA:0,_ZN9__gnu_cxx13new_allocatorI2M4E10deallocateEPS1_m
FNDA:0,_ZN9__gnu_cxx13new_allocatorI9t3DObjectE10deallocateEPS1_m
FNDA:0,_ZN9__gnu_cxx13new_allocatorI13tMaterialInfoE10deallocateEPS1_m
FNDA:18,_ZN9__gnu_cxx13new_allocatorI8triangleE10deallocateEPS1_m
FNDA:9,_ZNK9__gnu_cxx13new_allocatorI2M4E8max_sizeEv
FNDA:54,_ZNK9__gnu_cxx13new_allocatorI8triangleE8max_sizeEv
FNDA:69451,_ZN9__gnu_cxx13new_allocatorI8triangleE9constructEPS1_RKS1_
FNDA:0,_ZN9__gnu_cxx13new_allocatorI8triangleE7destroyEPS1_
FNF:16
FNH:12
DA:79,3
DA:86,3
DA:99,21
DA:101,21
DA:102,0
DA:104,21
DA:109,18
DA:110,18
DA:113,63
DA:114,63
DA:129,69451
DA:130,69451
DA:133,0
LF:13
LH:11
end_of_record
SF:/usr/include/c++/5/iostream
DA:74,1
LF:1
LH:1
end_of_record
SF:/usr/include/c++/5/new
FN:129,_ZnwmPv
FNDA:0,_ZnwmPv
FNF:1
FNH:0
DA:129,0
DA:130,0
LF:2
LH:0
end_of_record
SF:/disk2/graphdev/ReduceGL/DevR1/3DS.h
FN:66,_ZN8t3DModelD2Ev
FN:66,_ZN8t3DModelC2Ev
FNDA:1,_ZN8t3DModelD2Ev
FNDA:1,_ZN8t3DModelC2Ev
FNF:2
FNH:2
DA:66,2
LF:1
LH:1
end_of_record
SF:/disk2/graphdev/ReduceGL/DevR1/c24bitmap.h
FN:475,_ZN9C24BitMapC2Ev
FN:485,_ZN9C24BitMapD2Ev
FN:490,_ZN9C24BitMap7FormatFEii
FN:507,_ZN9C24BitMap4SaveEPc
FN:516,_ZN9C24BitMap4LoadEPc
FN:543,_Z13get_pix_colorR9C24BitMapii
FNDA:2,_ZN9C24BitMapC2Ev
FNDA:2,_ZN9C24BitMapD2Ev
FNDA:1,_ZN9C24BitMap7FormatFEii
FNDA:1,_ZN9C24BitMap4SaveEPc
FNDA:1,_ZN9C24BitMap4LoadEPc
FNDA:2560000,_Z13get_pix_colorR9C24BitMapii
FNF:6
FNH:6
DA:475,2
DA:477,2
DA:478,2
DA:479,2
DA:480,2
DA:481,2
DA:482,2
DA:483,2
DA:485,4
DA:487,2
DA:488,2
DA:490,1
DA:496,1
DA:498,1
DA:499,1
DA:500,1
DA:501,1
DA:502,1
DA:503,1
DA:504,1
DA:505,1
DA:507,1
DA:509,1
DA:510,1
DA:511,1
DA:512,1
DA:513,1
DA:514,1
DA:516,1
DA:518,1
DA:521,1
DA:523,1
DA:524,1
DA:528,1
DA:529,1
DA:531,1
DA:533,0
DA:534,0
DA:536,1
DA:537,1
DA:538,1
DA:539,1
DA:540,1
DA:543,2560000
DA:544,2560000
DA:546,2560000
DA:547,2560000
DA:554,2560000
LF:48
LH:46
end_of_record
SF:/disk2/graphdev/ReduceGL/DevR1/gl.h
FN:219,_ZN9GLSpecBuf8calc_bufEf
FN:323,_Z14gl_get_contextv
FN:329,_Z7gl_freePv
FN:334,_Z9gl_malloci
FN:341,_Z9gl_zalloci
FN:383,_ZN11MatrixStack18get_current_matrixEv
FN:388,_ZN11MatrixStack14set_stack_sizeEi
FN:505,_Z13alloc_textureP9GLContexti
FN:523,_Z15initSharedStateP9GLContext
FN:533,_ZN9GLContext14glLoadIdentityEv
FN:540,_ZN9GLContext14glInitTexturesEPS_
FN:548,_ZN9GLContext12glMatrixModeEi
FN:568,_ZN9GLContext6glInitEii
FN:717,_ZN9GLContext12find_textureEPS_i
FN:729,_ZN9GLContext10glViewportEiiii
FN:772,_ZN9GLContext16glXSaveRenderImgEPc
FN:804,_ZN9GLContext18specbuf_get_bufferEPS_if
FN:909,_Z18__gluMakeIdentityfPf
FN:924,_Z9normalizePf
FN:936,_Z5crossPfS_S_
FN:943,_ZN12GraphDrawLib9gluLookAtEddddddddd
FN:988,_Z14endSharedStateP9GLContext
FN:1003,_ZN12GraphDrawLib7glCloseEv
FN:1030,_ZN12GraphDrawLib16gl_matrix_updateEP9GLContext
FN:1035,_ZN12GraphDrawLib16gl_eval_viewportEP9GLContext
FN:1052,_ZN12GraphDrawLib10glVertex4fEffff
FN:1142,_ZN12GraphDrawLib10glVertex3fEfff
FN:1147,_ZN12GraphDrawLib11glVertex3fvEPf
FN:1154,_ZN12GraphDrawLib10glNormal3fEfff
FN:1167,_ZN12GraphDrawLib9glColor4fEffff
FN:1197,_ZN12GraphDrawLib9glColor3fEfff
FN:1205,_ZN12GraphDrawLib12glTexCoord4fEffff
FN:1214,_ZN12GraphDrawLib12glTexCoord2fEff
FN:1221,_ZN12GraphDrawLib16GL_EnableDisableEP9GLContextP7GLParam
FN:1257,_ZN12GraphDrawLib8glEnableEi
FN:1268,_ZN12GraphDrawLib9glDisableEi
FN:1280,_ZN12GraphDrawLib7glBeginEi
FN:1326,_ZN12GraphDrawLib5glEndEv
FN:1344,_ZN12GraphDrawLib12glMatrixModeEi
FN:1366,_ZN12GraphDrawLib14glLoadIdentityEv
FN:1373,_ZN12GraphDrawLib13glMultMatrixfEPKf
FN:1480,_ZN12GraphDrawLib12glTranslatefEfff
FN:1498,_ZN12GraphDrawLib8glScalefEfff
FN:1514,_ZN12GraphDrawLib10glViewportEiiii
FN:1559,_ZN12GraphDrawLib9glFrustumEdddddd
FN:1586,_ZN12GraphDrawLib14gluPerspectiveEdddd
FN:1602,_ZN12GraphDrawLib12glMaterialfvEiiPf
FN:1654,_ZN12GraphDrawLib11glMaterialfEiif
FN:1725,_ZN12GraphDrawLib9glLightfvEiiPf
FN:1808,_ZN12GraphDrawLib12glTexImage2DEiiiiiiiiPv
FN:1850,_ZN12GraphDrawLib13alloc_textureEP9GLContexti
FN:1870,_ZN12GraphDrawLib13glBindTextureEii
FN:1903,_ZL11gl_clipcodeffff
FN:1916,_Z24gl_transform_to_viewportP9GLContextP8GLVertex
FN:1955,_Z19gl_vertex_transformP9GLContextP8GLVertex
FN:2028,_Z9clip_xminP2V4S0_S0_
FN:2046,_Z9clip_xmaxP2V4S0_S0_
FN:2063,_Z9clip_yminP2V4S0_S0_
FN:2080,_Z9clip_ymaxP2V4S0_S0_
FN:2095,_Z9clip_zminP2V4S0_S0_
FN:2109,_Z9clip_zmaxP2V4S0_S0_
FN:2133,_Z9updateTmpP9GLContextP8GLVertexS2_S2_f
FN:2159,_ZN12GraphDrawLib21gl_draw_triangle_clipEP9GLContextP8GLVertexS3_S3_i
FN:2242,_ZN12GraphDrawLib16gl_draw_triangleEP9GLContextP8GLVertexS3_S3_
FN:2296,_Z12glopMaterialP9GLContextP7GLParam
FN:2352,_ZL6clampffff
FN:2359,_ZN12GraphDrawLib23gl_enable_disable_lightEP9GLContextii
FN:2376,_ZN12GraphDrawLib15gl_shade_vertexEP9GLContextP8GLVertex
FN:2500,_ZN12GraphDrawLib27gl_resizeImageNoInterpolateEPhiiS0_ii
FN:2565,_ZN12GraphDrawLib13glGenTexturesEiPj
FNDA:1,_ZN9GLSpecBuf8calc_bufEf
FNDA:445655,_Z14gl_get_contextv
FNDA:4,_Z7gl_freePv
FNDA:6,_Z9gl_malloci
FNDA:5,_Z9gl_zalloci
FNDA:436113,_ZN11MatrixStack18get_current_matrixEv
FNDA:3,_ZN11MatrixStack14set_stack_sizeEi
FNDA:1,_Z13alloc_textureP9GLContexti
FNDA:1,_Z15initSharedStateP9GLContext
FNDA:3,_ZN9GLContext14glLoadIdentityEv
FNDA:1,_ZN9GLContext14glInitTexturesEPS_
FNDA:3,_ZN9GLContext12glMatrixModeEi
FNDA:1,_ZN9GLContext6glInitEii
FNDA:3,_ZN9GLContext12find_textureEPS_i
FNDA:1,_ZN9GLContext10glViewportEiiii
FNDA:1,_ZN9GLContext16glXSaveRenderImgEPc
FNDA:387060,_ZN9GLContext18specbuf_get_bufferEPS_if
FNDA:1,_Z18__gluMakeIdentityfPf
FNDA:2,_Z9normalizePf
FNDA:2,_Z5crossPfS_S_
FNDA:1,_ZN12GraphDrawLib9gluLookAtEddddddddd
FNDA:1,_Z14endSharedStateP9GLContext
FNDA:1,_ZN12GraphDrawLib7glCloseEv
FNDA:11,_ZN12GraphDrawLib16gl_matrix_updateEP9GLContext
FNDA:1,_ZN12GraphDrawLib16gl_eval_viewportEP9GLContext
FNDA:218046,_ZN12GraphDrawLib10glVertex4fEffff
FNDA:217914,_ZN12GraphDrawLib10glVertex3fEfff
FNDA:132,_ZN12GraphDrawLib11glVertex3fvEPf
FNDA:217911,_ZN12GraphDrawLib10glNormal3fEfff
FNDA:1,_ZN12GraphDrawLib9glColor4fEffff
FNDA:1,_ZN12GraphDrawLib9glColor3fEfff
FNDA:9558,_ZN12GraphDrawLib12glTexCoord4fEffff
FNDA:9558,_ZN12GraphDrawLib12glTexCoord2fEff
FNDA:13,_ZN12GraphDrawLib16GL_EnableDisableEP9GLContextP7GLParam
FNDA:12,_ZN12GraphDrawLib8glEnableEi
FNDA:1,_ZN12GraphDrawLib9glDisableEi
FNDA:36,_ZN12GraphDrawLib7glBeginEi
FNDA:36,_ZN12GraphDrawLib5glEndEv
FNDA:5,_ZN12GraphDrawLib12glMatrixModeEi
FNDA:5,_ZN12GraphDrawLib14glLoadIdentityEv
FNDA:1,_ZN12GraphDrawLib13glMultMatrixfEPKf
FNDA:1,_ZN12GraphDrawLib12glTranslatefEfff
FNDA:1,_ZN12GraphDrawLib8glScalefEfff
FNDA:2,_ZN12GraphDrawLib10glViewportEiiii
FNDA:3,_ZN12GraphDrawLib9glFrustumEdddddd
FNDA:3,_ZN12GraphDrawLib14gluPerspectiveEdddd
FNDA:12,_ZN12GraphDrawLib12glMaterialfvEiiPf
FNDA:4,_ZN12GraphDrawLib11glMaterialfEiif
FNDA:6,_ZN12GraphDrawLib9glLightfvEiiPf
FNDA:1,_ZN12GraphDrawLib12glTexImage2DEiiiiiiiiPv
FNDA:1,_ZN12GraphDrawLib13alloc_textureEP9GLContexti
FNDA:2,_ZN12GraphDrawLib13glBindTextureEii
FNDA:218360,_ZL11gl_clipcodeffff
FNDA:218138,_Z24gl_transform_to_viewportP9GLContextP8GLVertex
FNDA:218046,_Z19gl_vertex_transformP9GLContextP8GLVertex
FNDA:72,_Z9clip_xminP2V4S0_S0_
FNDA:138,_Z9clip_xmaxP2V4S0_S0_
FNDA:40,_Z9clip_yminP2V4S0_S0_
FNDA:64,_Z9clip_ymaxP2V4S0_S0_
FNDA:0,_Z9clip_zminP2V4S0_S0_
FNDA:0,_Z9clip_zmaxP2V4S0_S0_
FNDA:314,_Z9updateTmpP9GLContextP8GLVertexS2_S2_f
FNDA:270,_ZN12GraphDrawLib21gl_draw_triangle_clipEP9GLContextP8GLVertexS3_S3_i
FNDA:72816,_ZN12GraphDrawLib16gl_draw_triangleEP9GLContextP8GLVertexS3_S3_
FNDA:18,_Z12glopMaterialP9GLContextP7GLParam
FNDA:872184,_ZL6clampffff
FNDA:5,_ZN12GraphDrawLib23gl_enable_disable_lightEP9GLContextii
FNDA:218046,_ZN12GraphDrawLib15gl_shade_vertexEP9GLContextP8GLVertex
FNDA:1,_ZN12GraphDrawLib27gl_resizeImageNoInterpolateEPhiiS0_ii
FNDA:1,_ZN12GraphDrawLib13glGenTexturesEiPj
FNF:70
FNH:68
DA:219,1
DA:221,1
DA:224,1
DA:225,1
DA:226,1026
DA:227,1025
DA:228,1025
DA:230,1
DA:323,445655
DA:325,445655
DA:329,4
DA:331,4
DA:332,4
DA:334,6
DA:336,6
DA:337,6
DA:338,6
DA:341,5
DA:343,5
DA:383,436113
DA:385,436113
DA:388,3
DA:390,3
DA:391,3
DA:392,3
DA:505,1
DA:509,1
DA:511,1
DA:513,1
DA:514,1
DA:515,1
DA:516,1
DA:518,1
DA:520,1
DA:523,1
DA:525,1
DA:526,1
DA:528,1
DA:530,1
DA:531,1
DA:533,3
DA:535,3
DA:536,3
DA:537,3
DA:539,3
DA:540,1
DA:544,1
DA:545,1
DA:546,1
DA:548,3
DA:550,3
DA:553,3
DA:555,1
DA:556,1
DA:558,1
DA:559,1
DA:561,1
DA:562,1
DA:564,0
DA:566,3
DA:568,1
DA:575,1
DA:576,1
DA:578,1
DA:582,1
DA:583,1
DA:586,1
DA:587,1
DA:588,1
DA:589,1
DA:590,1
DA:591,1
DA:594,1
DA:598,1
DA:599,1
DA:600,1
DA:602,1
DA:605,17
DA:606,16
DA:607,16
DA:608,16
DA:609,16
DA:610,16
DA:611,16
DA:612,16
DA:613,16
DA:614,16
DA:615,16
DA:616,16
DA:617,16
DA:618,16
DA:619,16
DA:621,1
DA:622,1
DA:623,1
DA:624,1
DA:625,1
DA:628,3
DA:629,2
DA:630,2
DA:631,2
DA:632,2
DA:633,2
DA:634,2
DA:636,1
DA:637,1
DA:638,1
DA:641,1
DA:644,1
DA:645,1
DA:646,1
DA:647,1
DA:648,1
DA:649,1
DA:650,1
DA:652,1
DA:653,1
DA:654,1
DA:655,1
DA:657,1
DA:659,1
DA:660,1
DA:661,1
DA:662,1
DA:664,1
DA:665,1
DA:667,1
DA:668,1
DA:669,1
DA:670,1
DA:673,1
DA:674,1
DA:675,1
DA:676,1
DA:677,1
DA:682,1
DA:684,1
DA:685,1
DA:686,1
DA:690,1
DA:691,1
DA:692,1
DA:694,1
DA:695,1
DA:696,1
DA:697,1
DA:698,1
DA:699,1
DA:701,1
DA:706,1
DA:709,1
DA:710,1
DA:711,1
DA:714,1
DA:715,1
DA:717,3
DA:721,3
DA:722,3
DA:723,2
DA:724,0
DA:726,1
DA:729,1
DA:731,1
DA:737,1
DA:738,1
DA:739,1
DA:743,2
DA:744,2
DA:745,1
DA:746,0
DA:748,1
DA:749,1
DA:751,1
DA:752,0
DA:753,0
DA:756,1
DA:757,1
DA:758,1
DA:759,0
DA:764,1
DA:765,1
DA:766,1
DA:767,1
DA:769,1
DA:771,1
DA:772,1
DA:776,1
DA:779,2
DA:780,1
DA:781,1
DA:782,1601
DA:784,1600
DA:785,1600
DA:786,2561600
DA:788,2560000
DA:790,2560000
DA:791,2560000
DA:792,2560000
DA:795,1
DA:799,1
DA:804,387060
DA:808,387060
DA:809,387060
DA:810,0
DA:811,0
DA:813,0
DA:815,387060
DA:816,387059
DA:817,387059
DA:819,1
DA:821,1
DA:822,1
DA:823,0
DA:825,1
DA:826,1
DA:827,1
DA:828,1
DA:829,1
DA:830,1
DA:831,1
DA:835,0
DA:836,0
DA:837,0
DA:838,0
DA:909,1
DA:911,1
DA:912,1
DA:913,1
DA:914,1
DA:915,1
DA:924,2
DA:928,2
DA:929,2
DA:931,2
DA:932,2
DA:933,2
DA:936,2
DA:938,2
DA:939,2
DA:940,2
DA:941,2
DA:943,1
DA:951,1
DA:952,1
DA:953,1
DA:955,1
DA:956,1
DA:957,1
DA:959,1
DA:962,1
DA:963,1
DA:966,1
DA:968,1
DA:969,1
DA:970,1
DA:971,1
DA:973,1
DA:974,1
DA:975,1
DA:977,1
DA:978,1
DA:979,1
DA:981,1
DA:982,1
DA:983,1
DA:988,1
DA:990,1
DA:993,1
DA:996,1
DA:998,1
DA:999,1
DA:1003,1
DA:1005,1
DA:1006,1
DA:1007,1
DA:1008,1
DA:1030,11
DA:1032,11
DA:1033,11
DA:1035,1
DA:1038,1
DA:1039,1
DA:1041,1
DA:1043,1
DA:1044,1
DA:1045,1
DA:1047,1
DA:1048,1
DA:1049,1
DA:1050,1
DA:1052,218046
DA:1054,218046
DA:1059,218046
DA:1061,218046
DA:1062,218046
DA:1063,218046
DA:1064,218046
DA:1067,218046
DA:1069,0
DA:1070,0
DA:1071,0
DA:1072,0
DA:1074,0
DA:1075,0
DA:1076,0
DA:1079,218046
DA:1080,218046
DA:1082,218046
DA:1083,218046
DA:1084,218046
DA:1085,218046
DA:1087,218046
DA:1091,218046
DA:1092,218046
DA:1094,0
DA:1099,218046
DA:1100,9558
DA:1101,0
DA:1103,9558
DA:1107,218046
DA:1108,217968
DA:1112,218046
DA:1114,218046
DA:1118,217914
DA:1119,72638
DA:1120,72638
DA:1122,217914
DA:1125,0
DA:1126,0
DA:1127,0
DA:1128,0
DA:1129,0
DA:1130,0
DA:1131,0
DA:1133,0
DA:1137,218046
DA:1139,218046
DA:1142,217914
DA:1144,217914
DA:1145,217914
DA:1147,132
DA:1149,132
DA:1150,132
DA:1154,217911
DA:1156,217911
DA:1157,217911
DA:1158,217911
DA:1159,217911
DA:1160,217911
DA:1161,217911
DA:1167,1
DA:1169,1
DA:1171,1
DA:1172,1
DA:1173,1
DA:1174,1
DA:1175,1
DA:1176,1
DA:1177,1
DA:1178,1
DA:1179,1
DA:1180,1
DA:1182,1
DA:1185,1
DA:1186,1
DA:1187,1
DA:1188,1
DA:1189,1
DA:1190,1
DA:1191,1
DA:1193,1
DA:1197,1
DA:1199,1
DA:1200,1
DA:1205,9558
DA:1207,9558
DA:1208,9558
DA:1209,9558
DA:1210,9558
DA:1211,9558
DA:1212,9558
DA:1214,9558
DA:1216,9558
DA:1217,9558
DA:1221,13
DA:1223,13
DA:1224,13
DA:1226,13
DA:1228,0
DA:1229,0
DA:1231,2
DA:1232,2
DA:1234,2
DA:1235,2
DA:1237,3
DA:1238,3
DA:1240,0
DA:1241,0
DA:1243,1
DA:1244,1
DA:1247,5
DA:1248,5
DA:1250,5
DA:1252,13
DA:1257,12
DA:1261,12
DA:1263,12
DA:1264,12
DA:1266,12
DA:1268,1
DA:1272,1
DA:1274,1
DA:1275,1
DA:1276,1
DA:1280,36
DA:1282,36
DA:1285,36
DA:1287,36
DA:1289,36
DA:1290,36
DA:1291,36
DA:1292,36
DA:1293,36
DA:1295,36
DA:1297,2
DA:1299,2
DA:1300,2
DA:1302,0
DA:1304,0
DA:1306,0
DA:1308,0
DA:1309,0
DA:1310,0
DA:1314,2
DA:1316,2
DA:1319,36
DA:1320,1
DA:1321,1
DA:1324,36
DA:1326,36
DA:1328,36
DA:1329,36
DA:1331,36
DA:1332,33
DA:1333,165
DA:1334,66
DA:1335,66
DA:1338,36
DA:1339,36
DA:1344,5
DA:1346,5
DA:1349,5
DA:1351,3
DA:1352,3
DA:1354,2
DA:1355,2
DA:1357,0
DA:1358,0
DA:1360,0
DA:1362,5
DA:1366,5
DA:1368,5
DA:1369,5
DA:1370,5
DA:1371,5
DA:1373,1
DA:1375,1
DA:1376,1
DA:1377,1
DA:1378,1
DA:1388,1
DA:1390,1
DA:1391,1
DA:1480,1
DA:1482,1
DA:1485,1
DA:1487,1
DA:1488,1
DA:1489,1
DA:1490,1
DA:1492,1
DA:1495,1
DA:1496,1
DA:1498,1
DA:1500,1
DA:1502,1
DA:1504,1
DA:1505,1
DA:1506,1
DA:1507,1
DA:1508,1
DA:1510,1
DA:1511,1
DA:1514,2
DA:1516,2
DA:1522,2
DA:1523,2
DA:1524,2
DA:1528,4
DA:1529,4
DA:1530,4
DA:1531,2
DA:1533,0
DA:1534,0
DA:1536,0
DA:1537,0
DA:1538,0
DA:1541,0
DA:1542,0
DA:1543,0
DA:1544,0
DA:1549,0
DA:1550,0
DA:1551,0
DA:1552,0
DA:1554,0
DA:1556,2
DA:1559,3
DA:1562,3
DA:1564,3
DA:1568,3
DA:1569,3
DA:1570,3
DA:1571,3
DA:1572,3
DA:1573,3
DA:1575,3
DA:1576,3
DA:1577,3
DA:1578,3
DA:1579,3
DA:1581,3
DA:1583,3
DA:1584,3
DA:1586,3
DA:1591,3
DA:1592,3
DA:1594,3
DA:1595,3
DA:1597,3
DA:1598,3
DA:1602,12
DA:1604,12
DA:1606,12
DA:1607,12
DA:1608,12
DA:1609,12
DA:1612,12
DA:1614,12
DA:1618,12
DA:1619,12
DA:1620,12
DA:1621,12
DA:1623,12
DA:1624,0
DA:1626,12
DA:1628,12
DA:1630,0
DA:1631,0
DA:1633,4
DA:1634,4
DA:1636,4
DA:1637,4
DA:1639,4
DA:1640,4
DA:1642,0
DA:1643,0
DA:1644,0
DA:1646,0
DA:1647,0
DA:1648,0
DA:1650,0
DA:1652,12
DA:1654,4
DA:1656,4
DA:1661,4
DA:1662,4
DA:1663,4
DA:1664,4
DA:1668,4
DA:1669,4
DA:1670,4
DA:1671,4
DA:1677,4
DA:1678,4
DA:1679,4
DA:1680,4
DA:1682,4
DA:1683,4
DA:1685,4
DA:1687,0
DA:1688,0
DA:1689,0
DA:1691,0
DA:1692,0
DA:1693,0
DA:1695,0
DA:1696,0
DA:1697,0
DA:1699,0
DA:1700,0
DA:1701,0
DA:1703,4
DA:1704,4
DA:1705,4
DA:1707,0
DA:1708,0
DA:1709,0
DA:1710,0
DA:1711,0
DA:1713,0
DA:1715,4
DA:1725,6
DA:1726,6
DA:1731,6
DA:1732,6
DA:1734,6
DA:1741,6
DA:1743,6
DA:1745,6
DA:1747,6
DA:1749,0
DA:1750,0
DA:1752,0
DA:1753,0
DA:1755,0
DA:1756,0
DA:1760,3
DA:1762,3
DA:1764,3
DA:1765,0
DA:1766,0
DA:1767,0
DA:1769,0
DA:1772,3
DA:1774,12
DA:1775,9
DA:1776,9
DA:1778,3
DA:1779,3
DA:1781,0
DA:1782,0
DA:1785,0
DA:1786,0
DA:1787,0
DA:1788,0
DA:1790,0
DA:1792,0
DA:1793,0
DA:1795,0
DA:1796,0
DA:1798,0
DA:1799,0
DA:1801,0
DA:1803,6
DA:1808,1
DA:1812,1
DA:1819,1
DA:1820,1
DA:1821,1
DA:1822,0
DA:1825,1
DA:1826,1
DA:1827,1
DA:1829,1
DA:1830,1
DA:1831,1
DA:1832,1
DA:1834,0
DA:1837,1
DA:1838,1
DA:1839,1
DA:1840,1
DA:1842,1
DA:1843,1
DA:1844,1
DA:1847,1
DA:1848,1
DA:1850,1
DA:1854,1
DA:1856,1
DA:1858,1
DA:1859,1
DA:1860,1
DA:1861,1
DA:1863,1
DA:1865,1
DA:1870,2
DA:1872,2
DA:1878,2
DA:1880,2
DA:1881,2
DA:1882,1
DA:1884,2
DA:1885,2
DA:1903,218360
DA:1907,218360
DA:1908,436720
DA:1909,436720
DA:1910,436720
DA:1911,436720
DA:1912,218360
DA:1913,218360
DA:1916,218138
DA:1921,218138
DA:1922,218138
DA:1923,218138
DA:1924,218138
DA:1925,218138
DA:1926,218138
DA:1927,218138
DA:1929,218138
DA:1930,218138
DA:1931,218138
DA:1932,218138
DA:1933,218138
DA:1934,218138
DA:1935,218138
DA:1938,0
DA:1939,0
DA:1940,0
DA:1945,218138
DA:1946,9558
DA:1947,9558
DA:1948,9558
DA:1949,9558
DA:1951,218138
DA:1955,218046
DA:1960,218046
DA:1963,218046
DA:1964,436092
DA:1965,436092
DA:1966,436092
DA:1967,436092
DA:1968,436092
DA:1969,436092
DA:1970,436092
DA:1971,436092
DA:1975,218046
DA:1976,436092
DA:1977,436092
DA:1978,436092
DA:1979,436092
DA:1980,436092
DA:1981,436092
DA:1982,436092
DA:1983,436092
DA:1985,218046
DA:1986,218046
DA:1988,218046
DA:1989,218046
DA:1990,218046
DA:1992,218046
DA:1993,0
DA:1998,0
DA:2000,0
DA:2001,0
DA:2002,0
DA:2003,0
DA:2004,0
DA:2005,0
DA:2006,0
DA:2007,0
DA:2009,0
DA:2010,0
DA:2014,218046
DA:2015,218046
DA:2028,72
DA:2030,72
DA:2031,72
DA:2032,72
DA:2033,72
DA:2034,72
DA:2035,72
DA:2036,0
DA:2038,72
DA:2039,72
DA:2040,72
DA:2041,72
DA:2042,72
DA:2043,72
DA:2046,138
DA:2047,138
DA:2048,138
DA:2049,138
DA:2050,138
DA:2051,138
DA:2052,138
DA:2053,0
DA:2055,138
DA:2056,138
DA:2057,138
DA:2058,138
DA:2059,138
DA:2060,138
DA:2063,40
DA:2064,40
DA:2065,40
DA:2066,40
DA:2067,40
DA:2068,40
DA:2069,40
DA:2070,0
DA:2072,40
DA:2073,40
DA:2074,40
DA:2075,40
DA:2076,40
DA:2077,40
DA:2080,64
DA:2081,64
DA:2082,64
DA:2083,64
DA:2084,64
DA:2085,64
DA:2086,64
DA:2087,64
DA:2088,64
DA:2089,64
DA:2090,64
DA:2091,64
DA:2092,64
DA:2095,0
DA:2096,0
DA:2097,0
DA:2098,0
DA:2099,0
DA:2100,0
DA:2101,0
DA:2102,0
DA:2103,0
DA:2104,0
DA:2105,0
DA:2106,0
DA:2107,0
DA:2109,0
DA:2110,0
DA:2111,0
DA:2112,0
DA:2113,0
DA:2114,0
DA:2115,0
DA:2116,0
DA:2117,0
DA:2118,0
DA:2119,0
DA:2120,0
DA:2121,0
DA:2133,314
DA:2136,314
DA:2137,314
DA:2138,314
DA:2139,314
DA:2141,0
DA:2142,0
DA:2143,0
DA:2146,314
DA:2147,0
DA:2148,0
DA:2151,314
DA:2152,314
DA:2153,170
DA:2154,314
DA:2159,270
DA:2166,270
DA:2167,270
DA:2168,270
DA:2170,270
DA:2171,270
DA:2172,112
DA:2174,158
DA:2176,159
DA:2179,263
DA:2180,53
DA:2184,157
DA:2191,0
DA:2194,157
DA:2195,157
DA:2197,157
DA:2200,59
DA:2201,19
DA:2202,18
DA:2204,59
DA:2205,59
DA:2207,59
DA:2208,59
DA:2210,59
DA:2211,59
DA:2212,59
DA:2213,59
DA:2215,59
DA:2216,59
DA:2217,59
DA:2218,59
DA:2222,98
DA:2223,58
DA:2224,30
DA:2226,98
DA:2227,98
DA:2229,98
DA:2230,98
DA:2232,98
DA:2233,98
DA:2234,98
DA:2242,72816
DA:2248,72816
DA:2249,72816
DA:2250,72816
DA:2252,72816
DA:2255,72816
DA:2257,72750
DA:2258,72750
DA:2260,77941
DA:2262,67559
DA:2263,67559
DA:2266,67559
DA:2268,0
DA:2269,0
DA:2270,0
DA:2271,0
DA:2272,0
DA:2273,0
DA:2275,0
DA:2279,67559
DA:2280,34303
DA:2282,33256
DA:2286,66
DA:2287,66
DA:2288,54
DA:2296,18
DA:2298,18
DA:2299,18
DA:2302,18
DA:2303,18
DA:2304,18
DA:2305,18
DA:2306,18
DA:2311,18
DA:2312,1
DA:2313,1
DA:2314,1
DA:2316,18
DA:2317,1
DA:2319,18
DA:2321,0
DA:2322,0
DA:2323,0
DA:2325,20
DA:2326,16
DA:2327,4
DA:2329,20
DA:2330,16
DA:2331,4
DA:2333,20
DA:2334,16
DA:2335,4
DA:2337,4
DA:2338,4
DA:2339,4
DA:2341,10
DA:2342,8
DA:2343,10
DA:2344,8
DA:2345,2
DA:2347,0
DA:2349,18
DA:2352,872184
DA:2354,872184
DA:2355,872184
DA:2356,861693
DA:2359,5
DA:2361,5
DA:2362,5
DA:2363,4
DA:2364,4
DA:2365,4
DA:2366,4
DA:2367,1
DA:2368,0
DA:2369,0
DA:2370,0
DA:2371,0
DA:2373,5
DA:2376,218046
DA:2383,218046
DA:2385,218046
DA:2387,218046
DA:2388,218046
DA:2389,218046
DA:2391,218046
DA:2392,218046
DA:2393,218046
DA:2394,218046
DA:2396,1061556
DA:2400,843510
DA:2401,843510
DA:2402,843510
DA:2404,843510
DA:2406,218046
DA:2407,218046
DA:2408,218046
DA:2409,218046
DA:2412,625464
DA:2413,625464
DA:2414,625464
DA:2415,625464
DA:2416,625464
DA:2417,625464
DA:2418,625464
DA:2419,625464
DA:2420,625464
DA:2422,1250928
DA:2423,1250928
DA:2425,843510
DA:2426,843510
DA:2427,843510
DA:2429,418596
DA:2430,418596
DA:2431,418596
DA:2434,418596
DA:2435,0
DA:2436,0
DA:2437,0
DA:2438,0
DA:2439,0
DA:2441,0
DA:2444,0
DA:2445,0
DA:2452,418596
DA:2454,0
DA:2455,0
DA:2456,0
DA:2457,0
DA:2458,0
DA:2459,0
DA:2460,0
DA:2462,418596
DA:2463,418596
DA:2464,418596
DA:2466,418596
DA:2467,418596
DA:2468,418596
DA:2471,387060
DA:2472,387060
DA:2473,387060
DA:2479,387060
DA:2480,387060
DA:2481,387060
DA:2482,387060
DA:2483,387060
DA:2484,387060
DA:2485,387060
DA:2489,843510
DA:2490,843510
DA:2491,843510
DA:2494,218046
DA:2495,218046
DA:2496,218046
DA:2497,218046
DA:2498,218046
DA:2500,1
DA:2509,1
DA:2510,1
DA:2512,1
DA:2513,1
DA:2515,1
DA:2516,257
DA:2517,256
DA:2518,65792
DA:2519,65536
DA:2520,65536
DA:2521,65536
DA:2523,65536
DA:2524,65536
DA:2525,65536
DA:2527,65536
DA:2528,65536
DA:2530,256
DA:2532,1
DA:2565,1
DA:2567,1
DA:2571,1
DA:2572,257
DA:2573,256
DA:2574,258
DA:2575,1
DA:2576,1
DA:2580,2
DA:2581,1
DA:2583,1
LF:1090
LH:898
end_of_record
SF:/disk2/graphdev/ReduceGL/DevR1/main.cpp
FN:30,_Z13CreateTexturePjPci
FN:50,_Z11RenderScenev
FN:124,_Z7reshapeii
FN:147,_Z4initv
FN:184,_Z11drawPolygonPA3_f
FN:197,_Z12SurfSetColorfff
FN:220,_Z15StlShape_RenderRSt6vectorI8triangleSaIS0_EE
FN:252,_Z14Test_TRIANGLESv
FN:286,_Z9SetCamerav
FN:301,main
FN:425,_Z41__static_initialization_and_destruction_0ii
FN:425,_GLOBAL__sub_I__Z13glXMakeDrawOkii
FNDA:1,_Z13CreateTexturePjPci
FNDA:1,_Z11RenderScenev
FNDA:2,_Z7reshapeii
FNDA:1,_Z4initv
FNDA:33,_Z11drawPolygonPA3_f
FNDA:4,_Z12SurfSetColorfff
FNDA:1,_Z15StlShape_RenderRSt6vectorI8triangleSaIS0_EE
FNDA:1,_Z14Test_TRIANGLESv
FNDA:1,_Z9SetCamerav
FNDA:1,main
FNDA:1,_GLOBAL__sub_I__Z13glXMakeDrawOkii
FNDA:1,_Z41__static_initialization_and_destruction_0ii
FNF:12
FNH:12
DA:17,1
DA:18,1
DA:25,1
DA:30,1
DA:33,1
DA:34,0
DA:36,1
DA:39,1
DA:41,1
DA:44,1
DA:46,2
DA:50,1
DA:62,2
DA:65,1
DA:68,1
DA:71,1
DA:74,1
DA:75,1
DA:76,1
DA:77,1
DA:81,0
DA:82,0
DA:85,1
DA:87,3187
DA:90,12744
DA:93,9558
DA:96,9558
DA:99,9558
DA:102,9558
DA:103,9558
DA:107,0
DA:109,0
DA:110,0
DA:113,9558
DA:117,1
DA:121,1
DA:124,2
DA:126,2
DA:128,0
DA:131,2
DA:133,2
DA:134,2
DA:135,2
DA:137,2
DA:138,2
DA:139,2
DA:147,1
DA:150,1
DA:153,2
DA:156,1
DA:159,1
DA:163,1
DA:166,1
DA:167,1
DA:168,1
DA:170,1
DA:184,33
DA:187,33
DA:188,33
DA:190,165
DA:191,132
DA:192,33
DA:194,33
DA:197,4
DA:206,4
DA:208,4
DA:210,4
DA:211,4
DA:212,4
DA:213,4
DA:214,4
DA:216,4
DA:218,4
DA:220,1
DA:227,1
DA:228,69452
DA:231,277804
DA:234,208353
DA:236,416706
DA:237,208353
DA:238,416706
DA:247,1
DA:250,1
DA:252,1
DA:258,1
DA:268,1
DA:270,1
DA:272,1
DA:282,1
DA:285,1
DA:286,1
DA:288,1
DA:289,1
DA:291,1
DA:293,1
DA:294,1
DA:295,1
DA:296,1
DA:298,1
DA:301,1
DA:303,1
DA:310,1
DA:311,1
DA:314,1
DA:323,1
DA:324,1
DA:326,1
DA:330,1
DA:331,1
DA:332,1
DA:333,1
DA:334,1
DA:335,1
DA:336,1
DA:337,1
DA:338,1
DA:339,1
DA:344,1
DA:346,1
DA:347,1
DA:348,1
DA:349,1
DA:350,1
DA:351,1
DA:352,1
DA:354,1
DA:355,1
DA:358,1
DA:361,1
DA:362,1
DA:363,1
DA:364,1
DA:365,1
DA:366,1
DA:367,1
DA:369,1
DA:370,1
DA:373,1
DA:378,2
DA:380,2
DA:381,1
DA:383,1
DA:384,1
DA:385,1
DA:386,1
DA:387,11
DA:389,10
DA:393,10
DA:395,1
DA:396,1
DA:397,11
DA:399,10
DA:403,10
DA:405,1
DA:406,1
DA:408,11
DA:410,10
DA:414,10
DA:416,1
DA:417,1
DA:419,1
DA:422,1
DA:423,1
DA:424,1
DA:425,3
LF:165
LH:158
end_of_record
SF:/disk2/graphdev/ReduceGL/DevR1/readstl.h
FN:28,_Z7Add3DPt5vec3dS_
FN:37,_ZplRK5vec3dS1_
FN:55,_Z20read_binary_STL_fileNSt7__cxx1112basic_stringIcSt11char_traitsIcESaIcEEERSt6vectorI8triangleSaIS6_EERdSA_SA_SA_SA_SA_
FNDA:0,_Z7Add3DPt5vec3dS_
FNDA:0,_ZplRK5vec3dS1_
FNDA:1,_Z20read_binary_STL_fileNSt7__cxx1112basic_stringIcSt11char_traitsIcESaIcEEERSt6vectorI8triangleSaIS6_EERdSA_SA_SA_SA_SA_
FNF:3
FNH:1
DA:28,0
DA:31,0
DA:32,0
DA:33,0
DA:34,0
DA:37,0
DA:39,0
DA:55,1
DA:59,2
DA:62,2
DA:67,1
DA:71,1
DA:73,0
DA:74,0
DA:78,1
DA:82,1
DA:92,1
DA:93,1
DA:94,1
DA:99,69452
DA:102,69451
DA:103,69451
DA:104,69451
DA:107,69451
DA:108,69451
DA:109,69451
DA:112,69451
DA:113,69451
DA:114,69451
DA:117,69451
DA:118,69451
DA:119,69451
DA:122,69451
DA:125,69451
DA:126,69451
DA:127,69451
DA:128,69451
DA:129,69451
DA:130,69451
DA:133,69451
DA:134,69451
DA:135,69451
DA:136,69451
DA:137,69451
DA:138,69451
DA:141,69451
DA:142,69451
DA:143,69451
DA:144,69451
DA:145,69451
DA:146,69451
DA:149,69451
DA:153,1
DA:155,1
LF:54
LH:45
end_of_record
SF:/disk2/graphdev/ReduceGL/DevR1/x11imp.h
FN:27,_Z10PUT_PIXELKiRdS_PhPdRjS2_S2_RiS3_S3_S3_
FN:45,_Z21ZB_fillTriangleSmoothP7ZBufferP12ZBufferPointS2_S2_
FN:298,_Z13PUT_PIXEL_TEXiPhRdS0_S_PdRjS2_RiS3_S3_
FN:318,_Z33ZB_fillTriangleMappingPerspectiveP7ZBufferP12ZBufferPointS2_S2_
FN:633,_Z21gl_draw_triangle_fillP9GLContextP8GLVertexS2_S2_
FN:647,_Z13glXMakeDrawOkii
FN:675,_Z7ui_loopiPPcPKc
FNDA:906484,_Z10PUT_PIXELKiRdS_PhPdRjS2_S2_RiS3_S3_S3_
FNDA:64380,_Z21ZB_fillTriangleSmoothP7ZBufferP12ZBufferPointS2_S2_
FNDA:149778,_Z13PUT_PIXEL_TEXiPhRdS0_S_PdRjS2_RiS3_S3_
FNDA:3179,_Z33ZB_fillTriangleMappingPerspectiveP7ZBufferP12ZBufferPointS2_S2_
FNDA:67559,_Z21gl_draw_triangle_fillP9GLContextP8GLVertexS2_S2_
FNDA:1,_Z13glXMakeDrawOkii
FNDA:1,_Z7ui_loopiPPcPKc
FNF:7
FNH:7
DA:27,906484
DA:32,906484
DA:33,906484
DA:34,655975
DA:35,655975
DA:36,655975
DA:37,655975
DA:39,906484
DA:40,906484
DA:41,906484
DA:42,906484
DA:43,906484
DA:45,64380
DA:74,64380
DA:75,28349
DA:76,28349
DA:77,28349
DA:79,64380
DA:80,18436
DA:81,18436
DA:82,18436
DA:83,18436
DA:84,45944
DA:85,17785
DA:86,17785
DA:87,17785
DA:92,64380
DA:93,64380
DA:95,64380
DA:96,64380
DA:98,64380
DA:99,64380
DA:100,0
DA:101,64380
DA:103,64380
DA:104,64380
DA:105,64380
DA:106,64380
DA:109,64380
DA:110,64380
DA:111,64380
DA:112,64380
DA:114,64380
DA:115,64380
DA:116,64380
DA:117,64380
DA:119,64380
DA:120,64380
DA:121,64380
DA:122,64380
DA:124,64380
DA:125,64380
DA:126,64380
DA:127,64380
DA:132,64380
DA:133,64380
DA:137,193140
DA:138,128760
DA:139,64380
DA:140,31598
DA:141,31598
DA:142,31598
DA:143,31598
DA:144,31598
DA:145,31598
DA:147,32782
DA:148,32782
DA:149,32782
DA:150,32782
DA:151,32782
DA:152,32782
DA:154,64380
DA:157,64380
DA:158,31598
DA:159,31598
DA:160,31598
DA:161,31598
DA:163,32782
DA:164,32782
DA:165,32782
DA:166,32782
DA:168,64380
DA:173,128760
DA:174,97162
DA:175,97162
DA:176,97162
DA:177,76390
DA:179,20772
DA:180,97162
DA:181,97162
DA:182,97162
DA:183,97162
DA:184,97162
DA:186,97162
DA:187,97162
DA:188,97162
DA:190,97162
DA:191,97162
DA:192,97162
DA:194,97162
DA:195,97162
DA:196,97162
DA:198,97162
DA:199,97162
DA:200,97162
DA:207,128760
DA:208,95978
DA:209,95978
DA:210,95978
DA:211,76426
DA:213,19552
DA:214,95978
DA:219,744032
DA:220,307636
DA:230,307636
DA:231,307636
DA:233,307636
DA:234,307636
DA:236,307636
DA:237,307636
DA:238,307636
DA:241,2120604
DA:242,906484
DA:244,906484
DA:246,906484
DA:247,906484
DA:251,307636
DA:252,307636
DA:253,107707
DA:254,107707
DA:256,107707
DA:258,107707
DA:259,107707
DA:260,107707
DA:264,199929
DA:266,199929
DA:268,199929
DA:269,199929
DA:270,199929
DA:276,307636
DA:279,307636
DA:280,307636
DA:298,149778
DA:304,149778
DA:305,149778
DA:306,145398
DA:307,145398
DA:308,145398
DA:309,145398
DA:310,145398
DA:312,149778
DA:313,149778
DA:314,149778
DA:315,149778
DA:318,3179
DA:363,3179
DA:364,1349
DA:365,1349
DA:366,1349
DA:368,3179
DA:369,1533
DA:370,1533
DA:371,1533
DA:372,1533
DA:373,1646
DA:374,86
DA:375,86
DA:376,86
DA:381,3179
DA:382,3179
DA:384,3179
DA:385,3179
DA:387,3179
DA:388,3179
DA:389,0
DA:390,3179
DA:392,3179
DA:393,3179
DA:394,3179
DA:395,3179
DA:398,3179
DA:399,3179
DA:400,3179
DA:401,3179
DA:409,3179
DA:410,3179
DA:411,3179
DA:412,3179
DA:413,3179
DA:414,3179
DA:415,3179
DA:416,3179
DA:417,3179
DA:419,3179
DA:420,3179
DA:421,3179
DA:422,3179
DA:424,3179
DA:425,3179
DA:426,3179
DA:427,3179
DA:432,3179
DA:433,3179
DA:438,3179
DA:439,3179
DA:440,3179
DA:441,3179
DA:442,3179
DA:447,9537
DA:448,6358
DA:449,3179
DA:450,1377
DA:451,1377
DA:452,1377
DA:453,1377
DA:454,1377
DA:455,1377
DA:457,1802
DA:458,1802
DA:459,1802
DA:460,1802
DA:461,1802
DA:462,1802
DA:464,3179
DA:467,3179
DA:468,1377
DA:469,1377
DA:470,1377
DA:471,1377
DA:473,1802
DA:474,1802
DA:475,1802
DA:476,1802
DA:478,3179
DA:483,6358
DA:484,4981
DA:485,4981
DA:486,4981
DA:487,4499
DA:489,482
DA:490,4981
DA:491,4981
DA:492,4981
DA:493,4981
DA:494,4981
DA:497,4981
DA:498,4981
DA:499,4981
DA:503,4981
DA:504,4981
DA:505,4981
DA:507,4981
DA:508,4981
DA:509,4981
DA:515,6358
DA:516,4556
DA:517,4556
DA:518,4556
DA:519,4518
DA:521,38
DA:522,4556
DA:527,73468
DA:528,33555
DA:537,33555
DA:538,33555
DA:539,33555
DA:540,33555
DA:541,33555
DA:542,33555
DA:543,33555
DA:544,33555
DA:545,48037
DA:548,7241
DA:549,7241
DA:550,7241
DA:551,7241
DA:552,7241
DA:553,7241
DA:554,7241
DA:555,7241
DA:557,7241
DA:558,7241
DA:559,7241
DA:560,7241
DA:561,7241
DA:562,7241
DA:563,7241
DA:564,7241
DA:565,7241
DA:566,7241
DA:567,7241
DA:568,7241
DA:569,7241
DA:573,33555
DA:574,33555
DA:575,33555
DA:576,33555
DA:577,33555
DA:578,33555
DA:580,217255
DA:581,91850
DA:582,91850
DA:583,91850
DA:584,91850
DA:589,33555
DA:590,33555
DA:591,16799
DA:592,16799
DA:594,16799
DA:598,16799
DA:599,16799
DA:602,16756
DA:604,16756
DA:608,16756
DA:609,16756
DA:614,33555
DA:617,33555
DA:618,33555
DA:633,67559
DA:638,67559
DA:640,3179
DA:641,3179
DA:642,64380
DA:643,64380
DA:645,67559
DA:647,1
DA:649,1
DA:651,1
DA:652,1
DA:655,1
DA:656,1
DA:657,1
DA:658,1
DA:659,1
DA:660,1
DA:662,1
DA:664,1
DA:665,1
DA:668,1
DA:675,1
DA:679,1
DA:681,1
DA:683,1
DA:684,1
DA:686,1
LF:345
LH:343
end_of_record
SF:/disk2/graphdev/ReduceGL/DevR1/zbuffer.h
FN:76,_ZN7ZBuffer7ZB_openEiiiiPhPiPv
FN:135,_ZN7ZBuffer13ZB_setTextureEPh
FNDA:1,_ZN7ZBuffer7ZB_openEiiiiPhPiPv
FNDA:3179,_ZN7ZBuffer13ZB_setTextureEPh
FNF:2
FNH:2
DA:76,1
DA:82,1
DA:87,1
DA:88,0
DA:90,1
DA:91,1
DA:92,1
DA:93,1
DA:96,1
DA:99,1
DA:101,1
DA:102,1
DA:103,0
DA:105,1
DA:106,1
DA:107,1
DA:108,0
DA:109,0
DA:111,1
DA:113,0
DA:114,0
DA:117,1
DA:119,1
DA:121,0
DA:122,0
DA:135,3179
DA:137,3179
DA:138,3179
LF:28
LH:20
end_of_record
SF:/disk2/graphdev/ReduceGL/DevR1/zmath.h
FN:33,_ZN2M4C2Ev
FN:56,_Z10gl_V3_NormP2V3
FN:67,_Z9gl_V3_Newfff
FN:76,_Z9gl_V4_Newffff
FN:91,_ZN2M48gl_M4_IdEPS_
FN:99,_ZN2M410gl_M4_IsIdEPS_
FN:111,_ZN2M49gl_M4_MulEPS_S0_S0_
FN:124,_ZN2M413gl_M4_MulLeftEPS_S0_
FN:157,_ZN2M411gl_M4_MulV4EP2V4PS_S1_
FN:166,_ZN2M415gl_M4_TransposeEPS_S0_
FN:207,_Z10Matrix_InvPfS_i
FN:267,_ZN2M49gl_M4_InvEPS_S0_
FNDA:54,_ZN2M4C2Ev
FNDA:3,_Z10gl_V3_NormP2V3
FNDA:48,_Z9gl_V3_Newfff
FNDA:73,_Z9gl_V4_Newffff
FNDA:8,_ZN2M48gl_M4_IdEPS_
FNDA:2,_ZN2M410gl_M4_IsIdEPS_
FNDA:0,_ZN2M49gl_M4_MulEPS_S0_S0_
FNDA:6,_ZN2M413gl_M4_MulLeftEPS_S0_
FNDA:3,_ZN2M411gl_M4_MulV4EP2V4PS_S1_
FNDA:3,_ZN2M415gl_M4_TransposeEPS_S0_
FNDA:2,_Z10Matrix_InvPfS_i
FNDA:2,_ZN2M49gl_M4_InvEPS_S0_
FNF:12
FNH:11
DA:33,54
DA:56,3
DA:59,3
DA:60,3
DA:61,3
DA:62,3
DA:63,3
DA:64,3
DA:67,48
DA:70,48
DA:71,48
DA:72,48
DA:73,48
DA:76,73
DA:79,73
DA:80,73
DA:81,73
DA:82,73
DA:83,73
DA:91,8
DA:94,40
DA:95,160
DA:96,128
DA:97,8
DA:99,2
DA:102,10
DA:103,40
DA:104,32
DA:105,8
DA:106,24
DA:108,2
DA:111,0
DA:115,0
DA:116,0
DA:117,0
DA:118,0
DA:119,0
DA:121,0
DA:124,6
DA:128,6
DA:132,6
DA:134,30
DA:135,120
DA:136,96
DA:137,96
DA:138,96
DA:140,6
DA:157,3
DA:159,3
DA:160,3
DA:161,3
DA:162,3
DA:163,3
DA:166,3
DA:168,3
DA:169,3
DA:170,3
DA:171,3
DA:173,3
DA:174,3
DA:175,3
DA:176,3
DA:178,3
DA:179,3
DA:180,3
DA:181,3
DA:183,3
DA:184,3
DA:185,3
DA:186,3
DA:187,3
DA:207,2
DA:213,2
DA:214,2
DA:216,10
DA:219,8
DA:220,8
DA:221,20
DA:222,12
DA:223,0
DA:224,0
DA:228,8
DA:232,8
DA:233,0
DA:234,0
DA:235,0
DA:236,0
DA:238,0
DA:239,0
DA:240,0
DA:245,8
DA:246,40
DA:247,32
DA:248,32
DA:252,40
DA:253,24
DA:254,120
DA:255,96
DA:256,96
DA:261,2
DA:267,2
DA:269,2
DA:270,2
DA:272,2
DA:273,2
LF:105
LH:89
end_of_record
